
out/bl2-vtk.elf:     file format elf32-littlearm
out/bl2-vtk.elf
architecture: arm, flags 0x00000112:
EXEC_P, HAS_SYMS, D_PAGED
start address 0xffff8000

Program Header:
    LOAD off    0x00000000 vaddr 0xffff0000 paddr 0xffff0000 align 2**16
         filesz 0x0000d0e8 memsz 0x0000d0e8 flags rwx
private flags = 5000400: [Version5 EABI]<Unrecognised flag bits set>

Sections:
Idx Name          Size      VMA       LMA       File off  Algn
  0 .text         000032c0  ffff8000  ffff8000  00008000  2**5
                  CONTENTS, ALLOC, LOAD, READONLY, CODE
  1 .text.startup 00000044  ffffb2c0  ffffb2c0  0000b2c0  2**2
                  CONTENTS, ALLOC, LOAD, READONLY, CODE
  2 .rodata       000006a2  ffffb304  ffffb304  0000b304  2**2
                  CONTENTS, ALLOC, LOAD, READONLY, DATA
  3 .data         00001740  ffffb9a8  ffffb9a8  0000b9a8  2**2
                  CONTENTS, ALLOC, LOAD, DATA
  4 .bss          00000034  ffffd0e8  ffffd0e8  00000000  2**2
                  ALLOC
  5 .ARM.attributes 0000003b  00000000  00000000  0000d0e8  2**0
                  CONTENTS, READONLY
  6 .comment      0000007f  00000000  00000000  0000d123  2**0
                  CONTENTS, READONLY
  7 .debug_line   00001d0a  00000000  00000000  0000d1a2  2**0
                  CONTENTS, READONLY, DEBUGGING
  8 .debug_info   0000d0b7  00000000  00000000  0000eeac  2**0
                  CONTENTS, READONLY, DEBUGGING
  9 .debug_abbrev 00002a7d  00000000  00000000  0001bf63  2**0
                  CONTENTS, READONLY, DEBUGGING
 10 .debug_aranges 000003a0  00000000  00000000  0001e9e0  2**3
                  CONTENTS, READONLY, DEBUGGING
 11 .debug_loc    0000423c  00000000  00000000  0001ed80  2**0
                  CONTENTS, READONLY, DEBUGGING
 12 .debug_str    000019dc  00000000  00000000  00022fbc  2**0
                  CONTENTS, READONLY, DEBUGGING
 13 .debug_frame  00000bc4  00000000  00000000  00024998  2**2
                  CONTENTS, READONLY, DEBUGGING
 14 .debug_ranges 00000448  00000000  00000000  0002555c  2**0
                  CONTENTS, READONLY, DEBUGGING
SYMBOL TABLE:
ffff8000 l    d  .text	00000000 .text
ffffb2c0 l    d  .text.startup	00000000 .text.startup
ffffb304 l    d  .rodata	00000000 .rodata
ffffb9a8 l    d  .data	00000000 .data
ffffd0e8 l    d  .bss	00000000 .bss
00000000 l    d  .ARM.attributes	00000000 .ARM.attributes
00000000 l    d  .comment	00000000 .comment
00000000 l    d  .debug_line	00000000 .debug_line
00000000 l    d  .debug_info	00000000 .debug_info
00000000 l    d  .debug_abbrev	00000000 .debug_abbrev
00000000 l    d  .debug_aranges	00000000 .debug_aranges
00000000 l    d  .debug_loc	00000000 .debug_loc
00000000 l    d  .debug_str	00000000 .debug_str
00000000 l    d  .debug_frame	00000000 .debug_frame
00000000 l    d  .debug_ranges	00000000 .debug_ranges
00000000 l    df *ABS*	00000000 obj/startup.o
ffff8020 l       .text	00000000 reset_handler
ffff8030 l       .text	00000000 clbss_l
ffff8040 l       .text	00000000 set_stack
00000000 l    df *ABS*	00000000 libnx.c
00000000 l    df *ABS*	00000000 obj/libarmv7.o
00000000 l    df *ABS*	00000000 obj/libplat.o
00000000 l    df *ABS*	00000000 armv7_pmu.c
00000000 l    df *ABS*	00000000 delay.c
00000000 l    df *ABS*	00000000 pll.c
ffff84b4 l     F .text	0000003c get_pll_baseaddr
00000000 l    df *ABS*	00000000 cmu.c
ffff8880 l     F .text	00000094 subdiv_get_clkrate
00000000 l    df *ABS*	00000000 clock.c
00000000 l    df *ABS*	00000000 serial.c
ffffcfc8 l     O .data	00000038 g_uart_pad
ffffd0e8 l     O .bss	00000004 g_uart_reg
00000000 l    df *ABS*	00000000 printf.c
ffff906c l     F .text	000000c0 prints.constprop.2
ffff912c l     F .text	000000f8 printi.constprop.1
00000000 l    df *ABS*	00000000 dctrl.c
00000000 l    df *ABS*	00000000 dphy.c
ffffd0ec l     O .bss	00000004 m_flag
00000000 l    df *ABS*	00000000 ddr3_sdram.c
00000000 l    df *ABS*	00000000 efuse.c
00000000 l    df *ABS*	00000000 memory.c
00000000 l    df *ABS*	00000000 pmu.c
00000000 l    df *ABS*	00000000 gpio.c
00000000 l    df *ABS*	00000000 i2c_gpio.c
ffffa5dc l     F .text	00000018 sda_low
ffffa5f4 l     F .text	00000018 scl_low
ffffa60c l     F .text	0000002c scl_read
ffffa638 l     F .text	0000002c sda_read
ffffa664 l     F .text	00000054 i2c_delay.constprop.4
ffffa6b8 l     F .text	0000008c i2c_gpio_send_stop
ffffa744 l     F .text	00000068 i2c_read_bit
ffffa7ac l     F .text	00000094 i2c_write_bit
ffffa840 l     F .text	0000011c i2c_write_byte
ffffb5df l     O .rodata	0000000d __func__.5077
ffffb5ec l     O .rodata	0000000e __func__.5085
ffffb5fa l     O .rodata	00000014 __func__.5059
ffffb60e l     O .rodata	0000000f __func__.5100
ffffd0f0 l     O .bss	00000001 g_gpio_sda
ffffd0f1 l     O .bss	00000001 g_gpio_grp
ffffd0f2 l     O .bss	00000001 g_gpio_scl
ffffd0f4 l     O .bss	00000004 g_started
00000000 l    df *ABS*	00000000 asv.c
00000000 l    df *ABS*	00000000 pmic.c
00000000 l    df *ABS*	00000000 sm5011.c
00000000 l    df *ABS*	00000000 board_vtk.c
00000000 l    df *ABS*	00000000 obj/smc_entry.o
00000000 l    df *ABS*	00000000 tz.c
00000000 l    df *ABS*	00000000 plat_load.c
00000000 l    df *ABS*	00000000 build_info.c
00000000 l    df *ABS*	00000000 main.c
00000000 l    df *ABS*	00000000 memtester.c
ffffd0e4 l     O .data	00000004 y
ffff8498 g     F .text	0000001c mdelay
ffffa430 g     F .text	00000018 pmu_initialize
ffffacf8 g     F .text	0000005c asv_get_core_vol
ffff9224 g     F .text	000001a8 printf
ffff8b1c g     F .text	0000006c cmu_clk_enable
ffff80d8 g     F .text	00000020 round_up
ffffd0e0 g     O .data	00000004 g_nsih
ffff861c g     F .text	00000090 get_pre_pll_freq
ffff8260 g     F .text	0000000c get_secure_status
ffff8300 g     F .text	00000008 bl1_set_fnptr
ffffaf18 g     F .text	0000007c pmic_board_init
ffff8fa8 g     F .text	00000018 serial_is_tx_empty
ffffaa90 g     F .text	000000f4 i2c_gpio_write
ffff83fc g     F .text	0000004c armv7_pmu_init
ffffafa0 g     F .text	00000008 smc_call
ffffb064 g     F .text	00000018 rand_ul
ffffa490 g     F .text	0000002c gpio_set_output
ffff819c g     F .text	0000008c get_remainder
ffffd0e8 g       .data	00000000 __bss_base
ffff82d0 g     F .text	00000008 set_mon_mode
ffff9464 g     F .text	00000390 ctrl_set_init_values
ffff8060 g     F .text	00000020 memcpy
ffff9878 g     F .text	000002a0 hw_bit_leveling_information
ffff850c g     F .text	0000005c clock_is_stable
ffff9ef0 g     F .text	0000010c enter_self_refresh
ffffd0e8 g       .data	00000000 __bss_start__
ffffd0f8 g     O .bss	00000004 g_cycle_period_ps
ffff8e8c g     F .text	00000050 serial_set_baudrate
ffff8280 g     F .text	00000008 armv7_get_mpidr
ffffae5c g     F .text	000000bc sm5011_sboot_output_cntl
ffff9ffc g     F .text	000000e8 exit_self_refresh
ffffa95c g     F .text	00000134 i2c_gpio_read
ffff874c g     F .text	00000098 pll_initialize
ffff8310 g     F .text	00000024 pmu_counter_deinitialize
ffff82f0 g     F .text	00000008 bl1_get_fnptr
ffffd070 g     O .data	00000070 arm_v_tables
ffffa33c g     F .text	00000014 efuse_get_ecid
ffff8240 g     F .text	00000010 set_nonsecure_mode
ffffd0f8 g       .bss	00000000 __bss_limit
ffffa32c g     F .text	00000010 efuse_get_bootcfg
ffffb02c g     F .text	0000001c rand_r
ffffadac g     F .text	00000020 sm5011_get_buck_vol
ffff82e0 g     F .text	00000008 set_svc_mode
ffff8940 g     F .text	00000014 get_src_mux
ffff9040 g     F .text	0000002c serial_is_uart_tx_done
ffffd114 g     O .bss	00000004 mword8
ffffbf78 g     O .data	00000e10 cmu_sys
ffffd11c g       .data	00000000 __bss_end__
ffff8914 g     F .text	0000002c get_optimal_div
ffff82c0 g     F .text	00000008 armv7_set_scr
ffff87e4 g     F .text	0000009c get_clk_priv
ffffa5c8 g     F .text	00000014 nx_gpio_set_alt
ffffb048 g     F .text	0000000c rand
ffff9004 g     F .text	00000024 serial_putc
ffff8cd4 g     F .text	000000ac clock_information
ffffd118 g     O .bss	00000004 mword16
ffff8270 g     F .text	0000000c armv7_get_cpuid
ffffd0fc g     O .bss	00000018 g_ddr_info
ffff8448 g     F .text	00000050 udelay
ffff93dc g     F .text	0000005c host_cmd_load_mr
ffff82b0 g     F .text	00000008 armv7_get_scr
ffff84f0 g     F .text	0000001c pll_set_oscmux
ffff8d80 g     F .text	0000010c clock_initialize
ffff86ac g     F .text	000000a0 nx_change_pll
ffffadcc g     F .text	0000002c sm5011_get_ldo_vol
ffff9028 g     F .text	00000018 serial_is_busy
ffff9c04 g     F .text	000002ec phy_set_init_values
ffff809c g     F .text	00000030 memcmp
ffffab84 g     F .text	000000c4 i2c_gpio_init
ffffcde8 g     O .data	00000138 cmu_cpu
ffffb07c g     F .text	00000244 simple_memtest
ffffafc0 g     F .text	00000050 plat_load
ffffa570 g     F .text	00000058 gpio_set_alt_function
ffff8308 g     F .text	00000008 pmu_get_count
ffffcd88 g     O .data	00000060 cmu_usb
ffff8080 g     F .text	0000001c memset
ffffb2c0 g     F .text.startup	00000044 main
ffffb054 g     F .text	00000010 srand
ffffadf8 g     F .text	00000030 sm5011_read
ffff82a0 g     F .text	00000008 armv7_get_auxctrl
ffff8edc g     F .text	000000cc serial_init
ffffd000 g     O .data	00000070 core_v_tables
ffffad54 g     F .text	00000054 asv_get_arm_vol
ffffa350 g     F .text	000000c8 memory_initialize
ffff97f8 g     F .text	00000080 hw_write_leveling
ffffa304 g     F .text	00000028 ddr3_initialize
ffff8568 g     F .text	00000014 get_pll_lock
ffffa4dc g     F .text	00000048 gpio_set_pullenb
ffff8fc0 g     F .text	0000001c serial_is_rx_empty
ffffa4bc g     F .text	00000020 gpio_get_pad
ffffac48 g     F .text	000000b0 i2c_gpio_deinit
ffffada8 g     F .text	00000004 pmic_initialize
ffffa0e4 g     F .text	00000220 mem_init_seq_ddr3
ffffafa8 g     F .text	00000018 tzpc_set_ddr
ffffa418 g     F .text	00000018 pmu_blk_pwrup
ffffae28 g     F .text	00000034 sm5011_write
ffffd0e8 g       .data	00000000 _end
ffff857c g     F .text	000000a0 get_pll_freq
ffffa524 g     F .text	0000004c gpio_set_pull
ffffcf20 g     O .data	000000a8 cmu_ddr
ffff8fdc g     F .text	00000028 serial_getc
ffff9b18 g     F .text	000000ec hw_bit_leveling
ffff8bdc g     F .text	000000f8 cmu_clkgrp_enable
ffff8954 g     F .text	00000154 cmu_set_rate
ffff9438 g     F .text	0000002c host_cmd_load
ffff8000 g       .text	00000000 vectors
ffff8b88 g     F .text	00000054 cmu_clk_divstop
ffffb9a8 g     O .data	000005d0 cmu_src
ffff80cc g     F .text	0000000c abs
ffff8290 g     F .text	00000008 armv7_set_auxctrl
ffff8334 g     F .text	000000c8 pmu_delay_us
ffff8250 g     F .text	00000010 set_secure_mode
ffff80f8 g     F .text	000000a4 get_quotient
ffffa448 g     F .text	00000048 gpio_set_outenb
ffffb010 g     F .text	0000001c build_information
ffff93cc g     F .text	00000010 empty_printf
ffff8aa8 g     F .text	00000074 cmu_get_rate



Disassembly of section .text:

ffff8000 <vectors>:
ffff8000:	ea000006 	b	ffff8020 <reset_handler>
ffff8004:	eafffffe 	b	ffff8004 <vectors+0x4>
ffff8008:	eafffffe 	b	ffff8008 <vectors+0x8>
ffff800c:	eafffffe 	b	ffff800c <vectors+0xc>
ffff8010:	eafffffe 	b	ffff8010 <vectors+0x10>
ffff8014:	eafffffe 	b	ffff8014 <vectors+0x14>
ffff8018:	eafffffe 	b	ffff8018 <vectors+0x18>
ffff801c:	eafffffe 	b	ffff801c <vectors+0x1c>

ffff8020 <reset_handler>:
ffff8020:	e321f0d3 	msr	CPSR_c, #211	; 0xd3
ffff8024:	e59f1028 	ldr	r1, [pc, #40]	; ffff8054 <set_stack+0x14>
ffff8028:	e59f2028 	ldr	r2, [pc, #40]	; ffff8058 <set_stack+0x18>
ffff802c:	e3a03000 	mov	r3, #0

ffff8030 <clbss_l>:
ffff8030:	e1510002 	cmp	r1, r2
ffff8034:	35813000 	strcc	r3, [r1]
ffff8038:	32811004 	addcc	r1, r1, #4
ffff803c:	3afffffb 	bcc	ffff8030 <clbss_l>

ffff8040 <set_stack>:
ffff8040:	e59fd014 	ldr	sp, [pc, #20]	; ffff805c <set_stack+0x1c>
ffff8044:	e28dd902 	add	sp, sp, #32768	; 0x8000
ffff8048:	e24ddb01 	sub	sp, sp, #1024	; 0x400
ffff804c:	e24ddb01 	sub	sp, sp, #1024	; 0x400
ffff8050:	eb000c9a 	bl	ffffb2c0 <main>
ffff8054:	ffffd0e8 	.word	0xffffd0e8
ffff8058:	ffffd11c 	.word	0xffffd11c
ffff805c:	ffff8000 	.word	0xffff8000

ffff8060 <memcpy>:
ffff8060:	e0812002 	add	r2, r1, r2
ffff8064:	e2403001 	sub	r3, r0, #1
ffff8068:	e1510002 	cmp	r1, r2
ffff806c:	1a000000 	bne	ffff8074 <memcpy+0x14>
ffff8070:	e12fff1e 	bx	lr
ffff8074:	e4d1c001 	ldrb	ip, [r1], #1
ffff8078:	e5e3c001 	strb	ip, [r3, #1]!
ffff807c:	eafffff9 	b	ffff8068 <memcpy+0x8>

ffff8080 <memset>:
ffff8080:	e0802002 	add	r2, r0, r2
ffff8084:	e1a03000 	mov	r3, r0
ffff8088:	e1530002 	cmp	r3, r2
ffff808c:	1a000000 	bne	ffff8094 <memset+0x14>
ffff8090:	e12fff1e 	bx	lr
ffff8094:	e4c31001 	strb	r1, [r3], #1
ffff8098:	eafffffa 	b	ffff8088 <memset+0x8>

ffff809c <memcmp>:
ffff809c:	e0812002 	add	r2, r1, r2
ffff80a0:	e1510002 	cmp	r1, r2
ffff80a4:	1a000001 	bne	ffff80b0 <memcmp+0x14>
ffff80a8:	e3a00000 	mov	r0, #0
ffff80ac:	e12fff1e 	bx	lr
ffff80b0:	e4d03001 	ldrb	r3, [r0], #1
ffff80b4:	e4d1c001 	ldrb	ip, [r1], #1
ffff80b8:	e043300c 	sub	r3, r3, ip
ffff80bc:	e21330ff 	ands	r3, r3, #255	; 0xff
ffff80c0:	0afffff6 	beq	ffff80a0 <memcmp+0x4>
ffff80c4:	e1a00003 	mov	r0, r3
ffff80c8:	e12fff1e 	bx	lr

ffff80cc <abs>:
ffff80cc:	e3500000 	cmp	r0, #0
ffff80d0:	b2600000 	rsblt	r0, r0, #0
ffff80d4:	e12fff1e 	bx	lr

ffff80d8 <round_up>:
ffff80d8:	eeb50bc0 	vcmpe.f64	d0, #0.0
ffff80dc:	eeb67b00 	vmov.f64	d7, #96	; 0x60
ffff80e0:	eef1fa10 	vmrs	APSR_nzcv, fpscr
ffff80e4:	ae300b07 	vaddge.f64	d0, d0, d7
ffff80e8:	be300b47 	vsublt.f64	d0, d0, d7
ffff80ec:	eebd0bc0 	vcvt.s32.f64	s0, d0
ffff80f0:	ee100a10 	vmov	r0, s0
ffff80f4:	e12fff1e 	bx	lr

ffff80f8 <get_quotient>:
ffff80f8:	e3510000 	cmp	r1, #0
ffff80fc:	0a000020 	beq	ffff8184 <get_quotient+0x8c>
ffff8100:	e1510000 	cmp	r1, r0
ffff8104:	8a000020 	bhi	ffff818c <get_quotient+0x94>
ffff8108:	0a000021 	beq	ffff8194 <get_quotient+0x9c>
ffff810c:	e3a0c000 	mov	ip, #0
ffff8110:	e3a02020 	mov	r2, #32
ffff8114:	e1a0300c 	mov	r3, ip
ffff8118:	e92d4030 	push	{r4, r5, lr}
ffff811c:	e1530001 	cmp	r3, r1
ffff8120:	3a000006 	bcc	ffff8140 <get_quotient+0x48>
ffff8124:	e3a0e000 	mov	lr, #0
ffff8128:	e2822001 	add	r2, r2, #1
ffff812c:	e1a030a3 	lsr	r3, r3, #1
ffff8130:	e1a0000e 	mov	r0, lr
ffff8134:	e15e0002 	cmp	lr, r2
ffff8138:	3a000006 	bcc	ffff8158 <get_quotient+0x60>
ffff813c:	e8bd8030 	pop	{r4, r5, pc}
ffff8140:	e1a0cfa0 	lsr	ip, r0, #31
ffff8144:	e2422001 	sub	r2, r2, #1
ffff8148:	e18c3083 	orr	r3, ip, r3, lsl #1
ffff814c:	e1a0c000 	mov	ip, r0
ffff8150:	e1a00080 	lsl	r0, r0, #1
ffff8154:	eafffff0 	b	ffff811c <get_quotient+0x24>
ffff8158:	e1a04fac 	lsr	r4, ip, #31
ffff815c:	e28ee001 	add	lr, lr, #1
ffff8160:	e1844083 	orr	r4, r4, r3, lsl #1
ffff8164:	e0443001 	sub	r3, r4, r1
ffff8168:	e1e05003 	mvn	r5, r3
ffff816c:	e3530000 	cmp	r3, #0
ffff8170:	e1a0c08c 	lsl	ip, ip, #1
ffff8174:	b1a03004 	movlt	r3, r4
ffff8178:	e1a05fa5 	lsr	r5, r5, #31
ffff817c:	e1850080 	orr	r0, r5, r0, lsl #1
ffff8180:	eaffffeb 	b	ffff8134 <get_quotient+0x3c>
ffff8184:	e3e00000 	mvn	r0, #0
ffff8188:	e12fff1e 	bx	lr
ffff818c:	e3a00000 	mov	r0, #0
ffff8190:	e12fff1e 	bx	lr
ffff8194:	e3a00001 	mov	r0, #1
ffff8198:	e12fff1e 	bx	lr

ffff819c <get_remainder>:
ffff819c:	e3510000 	cmp	r1, #0
ffff81a0:	0a000014 	beq	ffff81f8 <get_remainder+0x5c>
ffff81a4:	e1510000 	cmp	r1, r0
ffff81a8:	812fff1e 	bxhi	lr
ffff81ac:	13a02000 	movne	r2, #0
ffff81b0:	13a03020 	movne	r3, #32
ffff81b4:	11a0c002 	movne	ip, r2
ffff81b8:	1a000006 	bne	ffff81d8 <get_remainder+0x3c>
ffff81bc:	e3a00000 	mov	r0, #0
ffff81c0:	e12fff1e 	bx	lr
ffff81c4:	e1a02fa0 	lsr	r2, r0, #31
ffff81c8:	e2433001 	sub	r3, r3, #1
ffff81cc:	e182c08c 	orr	ip, r2, ip, lsl #1
ffff81d0:	e1a02000 	mov	r2, r0
ffff81d4:	e1a00080 	lsl	r0, r0, #1
ffff81d8:	e15c0001 	cmp	ip, r1
ffff81dc:	3afffff8 	bcc	ffff81c4 <get_remainder+0x28>
ffff81e0:	e1a000ac 	lsr	r0, ip, #1
ffff81e4:	e2833001 	add	r3, r3, #1
ffff81e8:	e3a0c000 	mov	ip, #0
ffff81ec:	e15c0003 	cmp	ip, r3
ffff81f0:	3a000002 	bcc	ffff8200 <get_remainder+0x64>
ffff81f4:	e12fff1e 	bx	lr
ffff81f8:	e3e00000 	mvn	r0, #0
ffff81fc:	e12fff1e 	bx	lr
ffff8200:	e52de004 	push	{lr}		; (str lr, [sp, #-4]!)
ffff8204:	e28cc001 	add	ip, ip, #1
ffff8208:	e1a0efa2 	lsr	lr, r2, #31
ffff820c:	e18e0080 	orr	r0, lr, r0, lsl #1
ffff8210:	e050e001 	subs	lr, r0, r1
ffff8214:	e1a02082 	lsl	r2, r2, #1
ffff8218:	51a0000e 	movpl	r0, lr
ffff821c:	e15c0003 	cmp	ip, r3
ffff8220:	3afffff7 	bcc	ffff8204 <get_remainder+0x68>
ffff8224:	e49df004 	pop	{pc}		; (ldr pc, [sp], #4)
	...

ffff8240 <set_nonsecure_mode>:
ffff8240:	ee110f11 	mrc	15, 0, r0, cr1, cr1, {0}
ffff8244:	e3800001 	orr	r0, r0, #1
ffff8248:	ee010f11 	mcr	15, 0, r0, cr1, cr1, {0}
ffff824c:	e12fff1e 	bx	lr

ffff8250 <set_secure_mode>:
ffff8250:	ee110f11 	mrc	15, 0, r0, cr1, cr1, {0}
ffff8254:	e3c00001 	bic	r0, r0, #1
ffff8258:	ee010f11 	mcr	15, 0, r0, cr1, cr1, {0}
ffff825c:	e12fff1e 	bx	lr

ffff8260 <get_secure_status>:
ffff8260:	ee110f11 	mrc	15, 0, r0, cr1, cr1, {0}
ffff8264:	e2000001 	and	r0, r0, #1
ffff8268:	e12fff1e 	bx	lr
ffff826c:	e320f000 	nop	{0}

ffff8270 <armv7_get_cpuid>:
ffff8270:	ee100fb0 	mrc	15, 0, r0, cr0, cr0, {5}
ffff8274:	e210000f 	ands	r0, r0, #15
ffff8278:	e12fff1e 	bx	lr
ffff827c:	e320f000 	nop	{0}

ffff8280 <armv7_get_mpidr>:
ffff8280:	ee100fb0 	mrc	15, 0, r0, cr0, cr0, {5}
ffff8284:	e12fff1e 	bx	lr
ffff8288:	e320f000 	nop	{0}
ffff828c:	e320f000 	nop	{0}

ffff8290 <armv7_set_auxctrl>:
ffff8290:	ee010f30 	mcr	15, 0, r0, cr1, cr0, {1}
ffff8294:	e12fff1e 	bx	lr
ffff8298:	e320f000 	nop	{0}
ffff829c:	e320f000 	nop	{0}

ffff82a0 <armv7_get_auxctrl>:
ffff82a0:	ee110f30 	mrc	15, 0, r0, cr1, cr0, {1}
ffff82a4:	e12fff1e 	bx	lr
ffff82a8:	e320f000 	nop	{0}
ffff82ac:	e320f000 	nop	{0}

ffff82b0 <armv7_get_scr>:
ffff82b0:	ee110f11 	mrc	15, 0, r0, cr1, cr1, {0}
ffff82b4:	e12fff1e 	bx	lr
ffff82b8:	e320f000 	nop	{0}
ffff82bc:	e320f000 	nop	{0}

ffff82c0 <armv7_set_scr>:
ffff82c0:	ee010f11 	mcr	15, 0, r0, cr1, cr1, {0}
ffff82c4:	e12fff1e 	bx	lr
ffff82c8:	e320f000 	nop	{0}
ffff82cc:	e320f000 	nop	{0}

ffff82d0 <set_mon_mode>:
ffff82d0:	e321f096 	msr	CPSR_c, #150	; 0x96
ffff82d4:	e12fff1e 	bx	lr
ffff82d8:	e320f000 	nop	{0}
ffff82dc:	e320f000 	nop	{0}

ffff82e0 <set_svc_mode>:
ffff82e0:	e321f093 	msr	CPSR_c, #147	; 0x93
ffff82e4:	e12fff1e 	bx	lr
	...

ffff82f0 <bl1_get_fnptr>:
ffff82f0:	ee1d0f90 	mrc	15, 0, r0, cr13, cr0, {4}
ffff82f4:	e12fff1e 	bx	lr
ffff82f8:	e320f000 	nop	{0}
ffff82fc:	e320f000 	nop	{0}

ffff8300 <bl1_set_fnptr>:
ffff8300:	ee0d0f90 	mcr	15, 0, r0, cr13, cr0, {4}
ffff8304:	e12fff1e 	bx	lr

ffff8308 <pmu_get_count>:
ffff8308:	ee190f1d 	mrc	15, 0, r0, cr9, cr13, {0}
ffff830c:	e12fff1e 	bx	lr

ffff8310 <pmu_counter_deinitialize>:
ffff8310:	e3a03000 	mov	r3, #0
ffff8314:	ee093f1c 	mcr	15, 0, r3, cr9, cr12, {0}
ffff8318:	e3a03001 	mov	r3, #1
ffff831c:	ee093f1e 	mcr	15, 0, r3, cr9, cr14, {0}
ffff8320:	e3a0313e 	mov	r3, #-2147483633	; 0x8000000f
ffff8324:	ee093f3c 	mcr	15, 0, r3, cr9, cr12, {1}
ffff8328:	ee093f7c 	mcr	15, 0, r3, cr9, cr12, {3}
ffff832c:	ee093f5e 	mcr	15, 0, r3, cr9, cr14, {2}
ffff8330:	e12fff1e 	bx	lr

ffff8334 <pmu_delay_us>:
ffff8334:	e24dd028 	sub	sp, sp, #40	; 0x28
ffff8338:	e58d0004 	str	r0, [sp, #4]
ffff833c:	ee193f1d 	mrc	15, 0, r3, cr9, cr13, {0}
ffff8340:	ee073a10 	vmov	s14, r3
ffff8344:	e3a02000 	mov	r2, #0
ffff8348:	e3a03000 	mov	r3, #0
ffff834c:	ed9f4b25 	vldr	d4, [pc, #148]	; ffff83e8 <pmu_delay_us+0xb4>
ffff8350:	ed9f5b26 	vldr	d5, [pc, #152]	; ffff83f0 <pmu_delay_us+0xbc>
ffff8354:	eeb87b47 	vcvt.f64.u32	d7, s14
ffff8358:	ed8d7b02 	vstr	d7, [sp, #8]
ffff835c:	e1cd21f0 	strd	r2, [sp, #16]
ffff8360:	e59f3090 	ldr	r3, [pc, #144]	; ffff83f8 <pmu_delay_us+0xc4>
ffff8364:	e5933000 	ldr	r3, [r3]
ffff8368:	ee192f1d 	mrc	15, 0, r2, cr9, cr13, {0}
ffff836c:	ee072a10 	vmov	s14, r2
ffff8370:	eeb87b47 	vcvt.f64.u32	d7, s14
ffff8374:	ed8d7b08 	vstr	d7, [sp, #32]
ffff8378:	ed9d7b08 	vldr	d7, [sp, #32]
ffff837c:	ed9d6b02 	vldr	d6, [sp, #8]
ffff8380:	ee377b46 	vsub.f64	d7, d7, d6
ffff8384:	ed8d7b06 	vstr	d7, [sp, #24]
ffff8388:	ed9d7b06 	vldr	d7, [sp, #24]
ffff838c:	eeb47bc4 	vcmpe.f64	d7, d4
ffff8390:	eef1fa10 	vmrs	APSR_nzcv, fpscr
ffff8394:	ba00000a 	blt	ffff83c4 <pmu_delay_us+0x90>
ffff8398:	ee063a90 	vmov	s13, r3
ffff839c:	ed9d7b06 	vldr	d7, [sp, #24]
ffff83a0:	ed9d3b04 	vldr	d3, [sp, #16]
ffff83a4:	eeb86be6 	vcvt.f64.s32	d6, s13
ffff83a8:	ee266b07 	vmul.f64	d6, d6, d7
ffff83ac:	ee862b05 	vdiv.f64	d2, d6, d5
ffff83b0:	ee827b05 	vdiv.f64	d7, d2, d5
ffff83b4:	ee377b03 	vadd.f64	d7, d7, d3
ffff83b8:	ed8d7b04 	vstr	d7, [sp, #16]
ffff83bc:	e1cd02d0 	ldrd	r0, [sp, #32]
ffff83c0:	e1cd00f8 	strd	r0, [sp, #8]
ffff83c4:	ed9d7a01 	vldr	s14, [sp, #4]
ffff83c8:	ed9d6b04 	vldr	d6, [sp, #16]
ffff83cc:	eeb87b47 	vcvt.f64.u32	d7, s14
ffff83d0:	eeb47bc6 	vcmpe.f64	d7, d6
ffff83d4:	eef1fa10 	vmrs	APSR_nzcv, fpscr
ffff83d8:	caffffe2 	bgt	ffff8368 <pmu_delay_us+0x34>
ffff83dc:	e28dd028 	add	sp, sp, #40	; 0x28
ffff83e0:	e12fff1e 	bx	lr
ffff83e4:	e320f000 	nop	{0}
ffff83e8:	00000000 	.word	0x00000000
ffff83ec:	412e8480 	.word	0x412e8480
ffff83f0:	00000000 	.word	0x00000000
ffff83f4:	408f4000 	.word	0x408f4000
ffff83f8:	ffffd0f8 	.word	0xffffd0f8

ffff83fc <armv7_pmu_init>:
ffff83fc:	e92d4010 	push	{r4, lr}
ffff8400:	e3a00002 	mov	r0, #2
ffff8404:	eb00005c 	bl	ffff857c <get_pll_freq>
ffff8408:	e59f3030 	ldr	r3, [pc, #48]	; ffff8440 <armv7_pmu_init+0x44>
ffff840c:	e59f2030 	ldr	r2, [pc, #48]	; ffff8444 <armv7_pmu_init+0x48>
ffff8410:	e710f310 	sdiv	r0, r0, r3
ffff8414:	e713f013 	sdiv	r3, r3, r0
ffff8418:	e5823000 	str	r3, [r2]
ffff841c:	e3a03017 	mov	r3, #23
ffff8420:	ee093f1c 	mcr	15, 0, r3, cr9, cr12, {0}
ffff8424:	e3a03001 	mov	r3, #1
ffff8428:	ee093f1e 	mcr	15, 0, r3, cr9, cr14, {0}
ffff842c:	e3a0313e 	mov	r3, #-2147483633	; 0x8000000f
ffff8430:	ee093f3c 	mcr	15, 0, r3, cr9, cr12, {1}
ffff8434:	ee093f7c 	mcr	15, 0, r3, cr9, cr12, {3}
ffff8438:	ee093f5e 	mcr	15, 0, r3, cr9, cr14, {2}
ffff843c:	e8bd8010 	pop	{r4, pc}
ffff8440:	000f4240 	.word	0x000f4240
ffff8444:	ffffd0f8 	.word	0xffffd0f8

ffff8448 <udelay>:
ffff8448:	e24dd010 	sub	sp, sp, #16
ffff844c:	e3a03000 	mov	r3, #0
ffff8450:	e58d0004 	str	r0, [sp, #4]
ffff8454:	e58d3008 	str	r3, [sp, #8]
ffff8458:	e59d2008 	ldr	r2, [sp, #8]
ffff845c:	e3520a01 	cmp	r2, #4096	; 0x1000
ffff8460:	3a000001 	bcc	ffff846c <udelay+0x24>
ffff8464:	e28dd010 	add	sp, sp, #16
ffff8468:	e12fff1e 	bx	lr
ffff846c:	e58d300c 	str	r3, [sp, #12]
ffff8470:	e59d200c 	ldr	r2, [sp, #12]
ffff8474:	e35200ff 	cmp	r2, #255	; 0xff
ffff8478:	859d2008 	ldrhi	r2, [sp, #8]
ffff847c:	82822001 	addhi	r2, r2, #1
ffff8480:	858d2008 	strhi	r2, [sp, #8]
ffff8484:	8afffff3 	bhi	ffff8458 <udelay+0x10>
ffff8488:	e59d200c 	ldr	r2, [sp, #12]
ffff848c:	e2822001 	add	r2, r2, #1
ffff8490:	e58d200c 	str	r2, [sp, #12]
ffff8494:	eafffff5 	b	ffff8470 <udelay+0x28>

ffff8498 <mdelay>:
ffff8498:	e24dd008 	sub	sp, sp, #8
ffff849c:	e58d0004 	str	r0, [sp, #4]
ffff84a0:	e3a00ffa 	mov	r0, #1000	; 0x3e8
ffff84a4:	e59d3004 	ldr	r3, [sp, #4]
ffff84a8:	e0000390 	mul	r0, r0, r3
ffff84ac:	e28dd008 	add	sp, sp, #8
ffff84b0:	eaffffe4 	b	ffff8448 <udelay>

ffff84b4 <get_pll_baseaddr>:
ffff84b4:	e92d4010 	push	{r4, lr}
ffff84b8:	e1a04000 	mov	r4, r0
ffff84bc:	e59fe028 	ldr	lr, [pc, #40]	; ffff84ec <get_pll_baseaddr+0x38>
ffff84c0:	e24dd018 	sub	sp, sp, #24
ffff84c4:	e28dc004 	add	ip, sp, #4
ffff84c8:	e8be000f 	ldm	lr!, {r0, r1, r2, r3}
ffff84cc:	e8ac000f 	stmia	ip!, {r0, r1, r2, r3}
ffff84d0:	e59e3000 	ldr	r3, [lr]
ffff84d4:	e58c3000 	str	r3, [ip]
ffff84d8:	e28d3018 	add	r3, sp, #24
ffff84dc:	e0834104 	add	r4, r3, r4, lsl #2
ffff84e0:	e5140014 	ldr	r0, [r4, #-20]
ffff84e4:	e28dd018 	add	sp, sp, #24
ffff84e8:	e8bd8010 	pop	{r4, pc}
ffff84ec:	ffffb304 	.word	0xffffb304

ffff84f0 <pll_set_oscmux>:
ffff84f0:	e92d4010 	push	{r4, lr}
ffff84f4:	e1a04001 	mov	r4, r1
ffff84f8:	ebffffed 	bl	ffff84b4 <get_pll_baseaddr>
ffff84fc:	e5903000 	ldr	r3, [r0]
ffff8500:	e1831184 	orr	r1, r3, r4, lsl #3
ffff8504:	e5801000 	str	r1, [r0]
ffff8508:	e8bd8010 	pop	{r4, pc}

ffff850c <clock_is_stable>:
ffff850c:	e92d4010 	push	{r4, lr}
ffff8510:	ebffffe7 	bl	ffff84b4 <get_pll_baseaddr>
ffff8514:	e5902004 	ldr	r2, [r0, #4]
ffff8518:	e5903000 	ldr	r3, [r0]
ffff851c:	e5901000 	ldr	r1, [r0]
ffff8520:	e590c000 	ldr	ip, [r0]
ffff8524:	e1a03323 	lsr	r3, r3, #6
ffff8528:	e7e41451 	ubfx	r1, r1, #8, #5
ffff852c:	e31c0008 	tst	ip, #8
ffff8530:	13a02001 	movne	r2, #1
ffff8534:	1a000002 	bne	ffff8544 <clock_is_stable+0x38>
ffff8538:	e3520c02 	cmp	r2, #512	; 0x200
ffff853c:	93a02000 	movls	r2, #0
ffff8540:	83a02001 	movhi	r2, #1
ffff8544:	e3510001 	cmp	r1, #1
ffff8548:	13a03000 	movne	r3, #0
ffff854c:	02033001 	andeq	r3, r3, #1
ffff8550:	e3530000 	cmp	r3, #0
ffff8554:	0affffee 	beq	ffff8514 <clock_is_stable+0x8>
ffff8558:	e3520000 	cmp	r2, #0
ffff855c:	0affffec 	beq	ffff8514 <clock_is_stable+0x8>
ffff8560:	e3a00000 	mov	r0, #0
ffff8564:	e8bd8010 	pop	{r4, pc}

ffff8568 <get_pll_lock>:
ffff8568:	e92d4010 	push	{r4, lr}
ffff856c:	ebffffd0 	bl	ffff84b4 <get_pll_baseaddr>
ffff8570:	e5900000 	ldr	r0, [r0]
ffff8574:	e7e00350 	ubfx	r0, r0, #6, #1
ffff8578:	e8bd8010 	pop	{r4, pc}

ffff857c <get_pll_freq>:
ffff857c:	e92d4070 	push	{r4, r5, r6, lr}
ffff8580:	e1a04000 	mov	r4, r0
ffff8584:	ebffffca 	bl	ffff84b4 <get_pll_baseaddr>
ffff8588:	e5903030 	ldr	r3, [r0, #48]	; 0x30
ffff858c:	e2442001 	sub	r2, r4, #1
ffff8590:	e16f2f12 	clz	r2, r2
ffff8594:	e5905030 	ldr	r5, [r0, #48]	; 0x30
ffff8598:	e1a022a2 	lsr	r2, r2, #5
ffff859c:	e5901040 	ldr	r1, [r0, #64]	; 0x40
ffff85a0:	e6ffe075 	uxth	lr, r5
ffff85a4:	e3540004 	cmp	r4, #4
ffff85a8:	11a03002 	movne	r3, r2
ffff85ac:	03823001 	orreq	r3, r2, #1
ffff85b0:	e1a05825 	lsr	r5, r5, #16
ffff85b4:	e6ffc071 	uxth	ip, r1
ffff85b8:	e1b01821 	lsrs	r1, r1, #16
ffff85bc:	03a03000 	moveq	r3, #0
ffff85c0:	12033001 	andne	r3, r3, #1
ffff85c4:	e3530000 	cmp	r3, #0
ffff85c8:	0a000006 	beq	ffff85e8 <get_pll_freq+0x6c>
ffff85cc:	e3a03ffa 	mov	r3, #1000	; 0x3e8
ffff85d0:	e0030193 	mul	r3, r3, r1
ffff85d4:	e1a01823 	lsr	r1, r3, #16
ffff85d8:	e3053dc0 	movw	r3, #24000	; 0x5dc0
ffff85dc:	e0030193 	mul	r3, r3, r1
ffff85e0:	e733fe13 	udiv	r3, r3, lr
ffff85e4:	e1a03c33 	lsr	r3, r3, ip
ffff85e8:	e3050dc0 	movw	r0, #24000	; 0x5dc0
ffff85ec:	e2444003 	sub	r4, r4, #3
ffff85f0:	e0000590 	mul	r0, r0, r5
ffff85f4:	e3540001 	cmp	r4, #1
ffff85f8:	81a04002 	movhi	r4, r2
ffff85fc:	93824001 	orrls	r4, r2, #1
ffff8600:	e3a01ffa 	mov	r1, #1000	; 0x3e8
ffff8604:	e730fe10 	udiv	r0, r0, lr
ffff8608:	e1a00c30 	lsr	r0, r0, ip
ffff860c:	e3540000 	cmp	r4, #0
ffff8610:	e0203091 	mla	r0, r1, r0, r3
ffff8614:	11a000a0 	lsrne	r0, r0, #1
ffff8618:	e8bd8070 	pop	{r4, r5, r6, pc}

ffff861c <get_pre_pll_freq>:
ffff861c:	e240c001 	sub	ip, r0, #1
ffff8620:	e16fcf1c 	clz	ip, ip
ffff8624:	e92d4030 	push	{r4, r5, lr}
ffff8628:	e6ff4072 	uxth	r4, r2
ffff862c:	e1a0c2ac 	lsr	ip, ip, #5
ffff8630:	e6ff5071 	uxth	r5, r1
ffff8634:	e1a01821 	lsr	r1, r1, #16
ffff8638:	e3500004 	cmp	r0, #4
ffff863c:	11a0300c 	movne	r3, ip
ffff8640:	038c3001 	orreq	r3, ip, #1
ffff8644:	e1b02822 	lsrs	r2, r2, #16
ffff8648:	03a03000 	moveq	r3, #0
ffff864c:	12033001 	andne	r3, r3, #1
ffff8650:	e3530000 	cmp	r3, #0
ffff8654:	0a000006 	beq	ffff8674 <get_pre_pll_freq+0x58>
ffff8658:	e3a03ffa 	mov	r3, #1000	; 0x3e8
ffff865c:	e0030293 	mul	r3, r3, r2
ffff8660:	e1a0e823 	lsr	lr, r3, #16
ffff8664:	e3053dc0 	movw	r3, #24000	; 0x5dc0
ffff8668:	e0030e93 	mul	r3, r3, lr
ffff866c:	e733f513 	udiv	r3, r3, r5
ffff8670:	e1a03433 	lsr	r3, r3, r4
ffff8674:	e3052dc0 	movw	r2, #24000	; 0x5dc0
ffff8678:	e2400003 	sub	r0, r0, #3
ffff867c:	e0020192 	mul	r2, r2, r1
ffff8680:	e3500001 	cmp	r0, #1
ffff8684:	81a0000c 	movhi	r0, ip
ffff8688:	938c0001 	orrls	r0, ip, #1
ffff868c:	e3a01ffa 	mov	r1, #1000	; 0x3e8
ffff8690:	e732f512 	udiv	r2, r2, r5
ffff8694:	e1a02432 	lsr	r2, r2, r4
ffff8698:	e3500000 	cmp	r0, #0
ffff869c:	e0233291 	mla	r3, r1, r2, r3
ffff86a0:	11a030a3 	lsrne	r3, r3, #1
ffff86a4:	e1a00003 	mov	r0, r3
ffff86a8:	e8bd8030 	pop	{r4, r5, pc}

ffff86ac <nx_change_pll>:
ffff86ac:	e92d47f0 	push	{r4, r5, r6, r7, r8, r9, sl, lr}
ffff86b0:	e1a05000 	mov	r5, r0
ffff86b4:	e1a06001 	mov	r6, r1
ffff86b8:	e1a08002 	mov	r8, r2
ffff86bc:	e1a07003 	mov	r7, r3
ffff86c0:	ebffff7b 	bl	ffff84b4 <get_pll_baseaddr>
ffff86c4:	e1a04000 	mov	r4, r0
ffff86c8:	e1a00005 	mov	r0, r5
ffff86cc:	ebffff8e 	bl	ffff850c <clock_is_stable>
ffff86d0:	e2509000 	subs	r9, r0, #0
ffff86d4:	13e09000 	mvnne	r9, #0
ffff86d8:	1a000019 	bne	ffff8744 <nx_change_pll+0x98>
ffff86dc:	e3a01001 	mov	r1, #1
ffff86e0:	e1a00005 	mov	r0, r5
ffff86e4:	ebffff81 	bl	ffff84f0 <pll_set_oscmux>
ffff86e8:	e5943004 	ldr	r3, [r4, #4]
ffff86ec:	e3530005 	cmp	r3, #5
ffff86f0:	0a00000a 	beq	ffff8720 <nx_change_pll+0x74>
ffff86f4:	e3a03005 	mov	r3, #5
ffff86f8:	e2455002 	sub	r5, r5, #2
ffff86fc:	e5843010 	str	r3, [r4, #16]
ffff8700:	e6ff2076 	uxth	r2, r6
ffff8704:	e5843014 	str	r3, [r4, #20]
ffff8708:	e5843018 	str	r3, [r4, #24]
ffff870c:	e3d53002 	bics	r3, r5, #2
ffff8710:	03003bb8 	movweq	r3, #3000	; 0xbb8
ffff8714:	13a030c8 	movne	r3, #200	; 0xc8
ffff8718:	e0233392 	mla	r3, r2, r3, r3
ffff871c:	e584301c 	str	r3, [r4, #28]
ffff8720:	e5846030 	str	r6, [r4, #48]	; 0x30
ffff8724:	e5848040 	str	r8, [r4, #64]	; 0x40
ffff8728:	e5847050 	str	r7, [r4, #80]	; 0x50
ffff872c:	e5943000 	ldr	r3, [r4]
ffff8730:	e3833002 	orr	r3, r3, #2
ffff8734:	e5843000 	str	r3, [r4]
ffff8738:	e5943000 	ldr	r3, [r4]
ffff873c:	e3833001 	orr	r3, r3, #1
ffff8740:	e5843000 	str	r3, [r4]
ffff8744:	e1a00009 	mov	r0, r9
ffff8748:	e8bd87f0 	pop	{r4, r5, r6, r7, r8, r9, sl, pc}

ffff874c <pll_initialize>:
ffff874c:	e59f308c 	ldr	r3, [pc, #140]	; ffff87e0 <pll_initialize+0x94>
ffff8750:	e92d41f0 	push	{r4, r5, r6, r7, r8, lr}
ffff8754:	e24dd040 	sub	sp, sp, #64	; 0x40
ffff8758:	e5932000 	ldr	r2, [r3]
ffff875c:	e28d6004 	add	r6, sp, #4
ffff8760:	e3a03000 	mov	r3, #0
ffff8764:	e28d7018 	add	r7, sp, #24
ffff8768:	e28d502c 	add	r5, sp, #44	; 0x2c
ffff876c:	e5921020 	ldr	r1, [r2, #32]
ffff8770:	e282200c 	add	r2, r2, #12
ffff8774:	e7861103 	str	r1, [r6, r3, lsl #2]
ffff8778:	e5921018 	ldr	r1, [r2, #24]
ffff877c:	e7871103 	str	r1, [r7, r3, lsl #2]
ffff8780:	e1b01821 	lsrs	r1, r1, #16
ffff8784:	1592101c 	ldrne	r1, [r2, #28]
ffff8788:	e7851103 	str	r1, [r5, r3, lsl #2]
ffff878c:	e2833001 	add	r3, r3, #1
ffff8790:	e3530005 	cmp	r3, #5
ffff8794:	1afffff4 	bne	ffff876c <pll_initialize+0x20>
ffff8798:	e3a04003 	mov	r4, #3
ffff879c:	e7953104 	ldr	r3, [r5, r4, lsl #2]
ffff87a0:	e1a00004 	mov	r0, r4
ffff87a4:	e7972104 	ldr	r2, [r7, r4, lsl #2]
ffff87a8:	e7961104 	ldr	r1, [r6, r4, lsl #2]
ffff87ac:	ebffffbe 	bl	ffff86ac <nx_change_pll>
ffff87b0:	e2508000 	subs	r8, r0, #0
ffff87b4:	1a000007 	bne	ffff87d8 <pll_initialize+0x8c>
ffff87b8:	e1a00004 	mov	r0, r4
ffff87bc:	e2844001 	add	r4, r4, #1
ffff87c0:	ebffff51 	bl	ffff850c <clock_is_stable>
ffff87c4:	e3540005 	cmp	r4, #5
ffff87c8:	1afffff3 	bne	ffff879c <pll_initialize+0x50>
ffff87cc:	e1a00008 	mov	r0, r8
ffff87d0:	e28dd040 	add	sp, sp, #64	; 0x40
ffff87d4:	e8bd81f0 	pop	{r4, r5, r6, r7, r8, pc}
ffff87d8:	e3e08000 	mvn	r8, #0
ffff87dc:	eafffffa 	b	ffff87cc <pll_initialize+0x80>
ffff87e0:	ffffd0e0 	.word	0xffffd0e0

ffff87e4 <get_clk_priv>:
ffff87e4:	e1a03e20 	lsr	r3, r0, #28
ffff87e8:	e3530006 	cmp	r3, #6
ffff87ec:	979ff103 	ldrls	pc, [pc, r3, lsl #2]
ffff87f0:	ea00001b 	b	ffff8864 <get_clk_priv+0x80>
ffff87f4:	ffff8810 	.word	0xffff8810
ffff87f8:	ffff8824 	.word	0xffff8824
ffff87fc:	ffff8834 	.word	0xffff8834
ffff8800:	ffff8864 	.word	0xffff8864
ffff8804:	ffff8864 	.word	0xffff8864
ffff8808:	ffff8844 	.word	0xffff8844
ffff880c:	ffff8854 	.word	0xffff8854
ffff8810:	e59f3054 	ldr	r3, [pc, #84]	; ffff886c <get_clk_priv+0x88>
ffff8814:	e6ff0070 	uxth	r0, r0
ffff8818:	e3a02018 	mov	r2, #24
ffff881c:	e0203092 	mla	r0, r2, r0, r3
ffff8820:	e12fff1e 	bx	lr
ffff8824:	e59f3044 	ldr	r3, [pc, #68]	; ffff8870 <get_clk_priv+0x8c>
ffff8828:	e6ff0070 	uxth	r0, r0
ffff882c:	e3a02018 	mov	r2, #24
ffff8830:	eafffff9 	b	ffff881c <get_clk_priv+0x38>
ffff8834:	e59f3038 	ldr	r3, [pc, #56]	; ffff8874 <get_clk_priv+0x90>
ffff8838:	e6ff0070 	uxth	r0, r0
ffff883c:	e3a02018 	mov	r2, #24
ffff8840:	eafffff5 	b	ffff881c <get_clk_priv+0x38>
ffff8844:	e59f302c 	ldr	r3, [pc, #44]	; ffff8878 <get_clk_priv+0x94>
ffff8848:	e6ff0070 	uxth	r0, r0
ffff884c:	e3a02018 	mov	r2, #24
ffff8850:	eafffff1 	b	ffff881c <get_clk_priv+0x38>
ffff8854:	e59f3020 	ldr	r3, [pc, #32]	; ffff887c <get_clk_priv+0x98>
ffff8858:	e6ff0070 	uxth	r0, r0
ffff885c:	e3a02018 	mov	r2, #24
ffff8860:	eaffffed 	b	ffff881c <get_clk_priv+0x38>
ffff8864:	e3e00000 	mvn	r0, #0
ffff8868:	e12fff1e 	bx	lr
ffff886c:	ffffb9a8 	.word	0xffffb9a8
ffff8870:	ffffbf78 	.word	0xffffbf78
ffff8874:	ffffcd88 	.word	0xffffcd88
ffff8878:	ffffcde8 	.word	0xffffcde8
ffff887c:	ffffcf20 	.word	0xffffcf20

ffff8880 <subdiv_get_clkrate>:
ffff8880:	e92d4070 	push	{r4, r5, r6, lr}
ffff8884:	e1a01000 	mov	r1, r0
ffff8888:	e3a04001 	mov	r4, #1
ffff888c:	ebffffd4 	bl	ffff87e4 <get_clk_priv>
ffff8890:	e5906000 	ldr	r6, [r0]
ffff8894:	e3a03000 	mov	r3, #0
ffff8898:	e2835001 	add	r5, r3, #1
ffff889c:	e2833018 	add	r3, r3, #24
ffff88a0:	e7963103 	ldr	r3, [r6, r3, lsl #2]
ffff88a4:	e6ff3073 	uxth	r3, r3
ffff88a8:	e0244493 	mla	r4, r3, r4, r4
ffff88ac:	e5903010 	ldr	r3, [r0, #16]
ffff88b0:	e3730001 	cmn	r3, #1
ffff88b4:	0a000003 	beq	ffff88c8 <subdiv_get_clkrate+0x48>
ffff88b8:	e1a00003 	mov	r0, r3
ffff88bc:	ebffffc8 	bl	ffff87e4 <get_clk_priv>
ffff88c0:	e1a03005 	mov	r3, r5
ffff88c4:	eafffff3 	b	ffff8898 <subdiv_get_clkrate+0x18>
ffff88c8:	e5903000 	ldr	r3, [r0]
ffff88cc:	e5930000 	ldr	r0, [r3]
ffff88d0:	e1a03e21 	lsr	r3, r1, #28
ffff88d4:	e3530005 	cmp	r3, #5
ffff88d8:	e200000f 	and	r0, r0, #15
ffff88dc:	1a000005 	bne	ffff88f8 <subdiv_get_clkrate+0x78>
ffff88e0:	e3500000 	cmp	r0, #0
ffff88e4:	0a000008 	beq	ffff890c <subdiv_get_clkrate+0x8c>
ffff88e8:	e3500001 	cmp	r0, #1
ffff88ec:	1a000003 	bne	ffff8900 <subdiv_get_clkrate+0x80>
ffff88f0:	e3a00000 	mov	r0, #0
ffff88f4:	e8bd8070 	pop	{r4, r5, r6, pc}
ffff88f8:	e3530006 	cmp	r3, #6
ffff88fc:	02800003 	addeq	r0, r0, #3
ffff8900:	ebffff1d 	bl	ffff857c <get_pll_freq>
ffff8904:	e730f410 	udiv	r0, r0, r4
ffff8908:	e8bd8070 	pop	{r4, r5, r6, pc}
ffff890c:	e3a00002 	mov	r0, #2
ffff8910:	eafffffa 	b	ffff8900 <subdiv_get_clkrate+0x80>

ffff8914 <get_optimal_div>:
ffff8914:	e731f110 	udiv	r1, r0, r1
ffff8918:	e35100ff 	cmp	r1, #255	; 0xff
ffff891c:	d5821000 	strle	r1, [r2]
ffff8920:	c3a000ff 	movgt	r0, #255	; 0xff
ffff8924:	c5820000 	strgt	r0, [r2]
ffff8928:	c24110ff 	subgt	r1, r1, #255	; 0xff
ffff892c:	c5831000 	strgt	r1, [r3]
ffff8930:	d3a02001 	movle	r2, #1
ffff8934:	d5832000 	strle	r2, [r3]
ffff8938:	e3a00000 	mov	r0, #0
ffff893c:	e12fff1e 	bx	lr

ffff8940 <get_src_mux>:
ffff8940:	e92d4010 	push	{r4, lr}
ffff8944:	ebffffa6 	bl	ffff87e4 <get_clk_priv>
ffff8948:	e5903000 	ldr	r3, [r0]
ffff894c:	e5930000 	ldr	r0, [r3]
ffff8950:	e8bd8010 	pop	{r4, pc}

ffff8954 <cmu_set_rate>:
ffff8954:	e92d4ff8 	push	{r3, r4, r5, r6, r7, r8, r9, sl, fp, lr}
ffff8958:	e1a04000 	mov	r4, r0
ffff895c:	e1a03e20 	lsr	r3, r0, #28
ffff8960:	e1a06001 	mov	r6, r1
ffff8964:	e2433001 	sub	r3, r3, #1
ffff8968:	e3530005 	cmp	r3, #5
ffff896c:	979ff103 	ldrls	pc, [pc, r3, lsl #2]
ffff8970:	ea00004a 	b	ffff8aa0 <cmu_set_rate+0x14c>
ffff8974:	ffff898c 	.word	0xffff898c
ffff8978:	ffff8a3c 	.word	0xffff8a3c
ffff897c:	ffff8aa0 	.word	0xffff8aa0
ffff8980:	ffff8aa0 	.word	0xffff8aa0
ffff8984:	ffff8a3c 	.word	0xffff8a3c
ffff8988:	ffff8a3c 	.word	0xffff8a3c
ffff898c:	e3a05000 	mov	r5, #0
ffff8990:	ebffff93 	bl	ffff87e4 <get_clk_priv>
ffff8994:	e1a08000 	mov	r8, r0
ffff8998:	e1a04005 	mov	r4, r5
ffff899c:	e5900010 	ldr	r0, [r0, #16]
ffff89a0:	e3e0a000 	mvn	sl, #0
ffff89a4:	e1a07005 	mov	r7, r5
ffff89a8:	ebffff8d 	bl	ffff87e4 <get_clk_priv>
ffff89ac:	e5903000 	ldr	r3, [r0]
ffff89b0:	e1a0b000 	mov	fp, r0
ffff89b4:	e5939000 	ldr	r9, [r3]
ffff89b8:	e1a00007 	mov	r0, r7
ffff89bc:	ebfffeee 	bl	ffff857c <get_pll_freq>
ffff89c0:	e713f610 	sdiv	r3, r0, r6
ffff89c4:	e712f310 	sdiv	r2, r0, r3
ffff89c8:	e0600293 	mls	r0, r3, r2, r0
ffff89cc:	e150000a 	cmp	r0, sl
ffff89d0:	2a000008 	bcs	ffff89f8 <cmu_set_rate+0xa4>
ffff89d4:	e35300ff 	cmp	r3, #255	; 0xff
ffff89d8:	c24350ff 	subgt	r5, r3, #255	; 0xff
ffff89dc:	c1a0a000 	movgt	sl, r0
ffff89e0:	c1a09007 	movgt	r9, r7
ffff89e4:	c3a040ff 	movgt	r4, #255	; 0xff
ffff89e8:	d1a0a000 	movle	sl, r0
ffff89ec:	d1a04003 	movle	r4, r3
ffff89f0:	d1a09007 	movle	r9, r7
ffff89f4:	d3a05001 	movle	r5, #1
ffff89f8:	e2877001 	add	r7, r7, #1
ffff89fc:	e3570003 	cmp	r7, #3
ffff8a00:	1affffec 	bne	ffff89b8 <cmu_set_rate+0x64>
ffff8a04:	e59b2000 	ldr	r2, [fp]
ffff8a08:	e2443001 	sub	r3, r4, #1
ffff8a0c:	e6ff3073 	uxth	r3, r3
ffff8a10:	e1a00009 	mov	r0, r9
ffff8a14:	e5829000 	str	r9, [r2]
ffff8a18:	e5823060 	str	r3, [r2, #96]	; 0x60
ffff8a1c:	e2453001 	sub	r3, r5, #1
ffff8a20:	e5982000 	ldr	r2, [r8]
ffff8a24:	e6ff3073 	uxth	r3, r3
ffff8a28:	e5823060 	str	r3, [r2, #96]	; 0x60
ffff8a2c:	ebfffed2 	bl	ffff857c <get_pll_freq>
ffff8a30:	e710f410 	sdiv	r0, r0, r4
ffff8a34:	e710f510 	sdiv	r0, r0, r5
ffff8a38:	e8bd8ff8 	pop	{r3, r4, r5, r6, r7, r8, r9, sl, fp, pc}
ffff8a3c:	ebffff68 	bl	ffff87e4 <get_clk_priv>
ffff8a40:	e5905008 	ldr	r5, [r0, #8]
ffff8a44:	e1a07000 	mov	r7, r0
ffff8a48:	e5903000 	ldr	r3, [r0]
ffff8a4c:	e5900010 	ldr	r0, [r0, #16]
ffff8a50:	e3550008 	cmp	r5, #8
ffff8a54:	03a05000 	moveq	r5, #0
ffff8a58:	e2855018 	add	r5, r5, #24
ffff8a5c:	e3700001 	cmn	r0, #1
ffff8a60:	01a00004 	moveq	r0, r4
ffff8a64:	e7938105 	ldr	r8, [r3, r5, lsl #2]
ffff8a68:	ebffff84 	bl	ffff8880 <subdiv_get_clkrate>
ffff8a6c:	e3500000 	cmp	r0, #0
ffff8a70:	08bd8ff8 	popeq	{r3, r4, r5, r6, r7, r8, r9, sl, fp, pc}
ffff8a74:	e5972000 	ldr	r2, [r7]
ffff8a78:	e6ff8078 	uxth	r8, r8
ffff8a7c:	e0200098 	mla	r0, r8, r0, r0
ffff8a80:	e2464001 	sub	r4, r6, #1
ffff8a84:	e0844000 	add	r4, r4, r0
ffff8a88:	e734f614 	udiv	r4, r4, r6
ffff8a8c:	e2443001 	sub	r3, r4, #1
ffff8a90:	e6ff3073 	uxth	r3, r3
ffff8a94:	e7823105 	str	r3, [r2, r5, lsl #2]
ffff8a98:	e730f410 	udiv	r0, r0, r4
ffff8a9c:	e8bd8ff8 	pop	{r3, r4, r5, r6, r7, r8, r9, sl, fp, pc}
ffff8aa0:	e3a00000 	mov	r0, #0
ffff8aa4:	e8bd8ff8 	pop	{r3, r4, r5, r6, r7, r8, r9, sl, fp, pc}

ffff8aa8 <cmu_get_rate>:
ffff8aa8:	e1a03e20 	lsr	r3, r0, #28
ffff8aac:	e3530006 	cmp	r3, #6
ffff8ab0:	8a000015 	bhi	ffff8b0c <cmu_get_rate+0x64>
ffff8ab4:	e92d4010 	push	{r4, lr}
ffff8ab8:	e3a04001 	mov	r4, #1
ffff8abc:	e1a03314 	lsl	r3, r4, r3
ffff8ac0:	e3130064 	tst	r3, #100	; 0x64
ffff8ac4:	1a00000e 	bne	ffff8b04 <cmu_get_rate+0x5c>
ffff8ac8:	e2133003 	ands	r3, r3, #3
ffff8acc:	0a000010 	beq	ffff8b14 <cmu_get_rate+0x6c>
ffff8ad0:	ebffff43 	bl	ffff87e4 <get_clk_priv>
ffff8ad4:	e5902000 	ldr	r2, [r0]
ffff8ad8:	e5900010 	ldr	r0, [r0, #16]
ffff8adc:	e5923060 	ldr	r3, [r2, #96]	; 0x60
ffff8ae0:	e3700001 	cmn	r0, #1
ffff8ae4:	e6ff3073 	uxth	r3, r3
ffff8ae8:	e0244493 	mla	r4, r3, r4, r4
ffff8aec:	1afffff7 	bne	ffff8ad0 <cmu_get_rate+0x28>
ffff8af0:	e5920000 	ldr	r0, [r2]
ffff8af4:	e200000f 	and	r0, r0, #15
ffff8af8:	ebfffe9f 	bl	ffff857c <get_pll_freq>
ffff8afc:	e730f410 	udiv	r0, r0, r4
ffff8b00:	e8bd8010 	pop	{r4, pc}
ffff8b04:	e8bd4010 	pop	{r4, lr}
ffff8b08:	eaffff5c 	b	ffff8880 <subdiv_get_clkrate>
ffff8b0c:	e3a00000 	mov	r0, #0
ffff8b10:	e12fff1e 	bx	lr
ffff8b14:	e1a00003 	mov	r0, r3
ffff8b18:	e8bd8010 	pop	{r4, pc}

ffff8b1c <cmu_clk_enable>:
ffff8b1c:	e92d4010 	push	{r4, lr}
ffff8b20:	ebffff2f 	bl	ffff87e4 <get_clk_priv>
ffff8b24:	e590200c 	ldr	r2, [r0, #12]
ffff8b28:	e3a03020 	mov	r3, #32
ffff8b2c:	e713f312 	sdiv	r3, r2, r3
ffff8b30:	e272c000 	rsbs	ip, r2, #0
ffff8b34:	e202201f 	and	r2, r2, #31
ffff8b38:	e20cc01f 	and	ip, ip, #31
ffff8b3c:	526c2000 	rsbpl	r2, ip, #0
ffff8b40:	e3510000 	cmp	r1, #0
ffff8b44:	e1a01103 	lsl	r1, r3, #2
ffff8b48:	e5903000 	ldr	r3, [r0]
ffff8b4c:	13a00001 	movne	r0, #1
ffff8b50:	e0833001 	add	r3, r3, r1
ffff8b54:	03a01001 	moveq	r1, #1
ffff8b58:	05930010 	ldreq	r0, [r3, #16]
ffff8b5c:	01a02211 	lsleq	r2, r1, r2
ffff8b60:	01c01002 	biceq	r1, r0, r2
ffff8b64:	15931010 	ldrne	r1, [r3, #16]
ffff8b68:	05831010 	streq	r1, [r3, #16]
ffff8b6c:	05931020 	ldreq	r1, [r3, #32]
ffff8b70:	11812210 	orrne	r2, r1, r0, lsl r2
ffff8b74:	e3a00000 	mov	r0, #0
ffff8b78:	01822001 	orreq	r2, r2, r1
ffff8b7c:	15832010 	strne	r2, [r3, #16]
ffff8b80:	05832020 	streq	r2, [r3, #32]
ffff8b84:	e8bd8010 	pop	{r4, pc}

ffff8b88 <cmu_clk_divstop>:
ffff8b88:	e92d4010 	push	{r4, lr}
ffff8b8c:	ebffff14 	bl	ffff87e4 <get_clk_priv>
ffff8b90:	e5900010 	ldr	r0, [r0, #16]
ffff8b94:	ebffff12 	bl	ffff87e4 <get_clk_priv>
ffff8b98:	e5902014 	ldr	r2, [r0, #20]
ffff8b9c:	e3a03020 	mov	r3, #32
ffff8ba0:	e713f312 	sdiv	r3, r2, r3
ffff8ba4:	e272c000 	rsbs	ip, r2, #0
ffff8ba8:	e202201f 	and	r2, r2, #31
ffff8bac:	e1a03103 	lsl	r3, r3, #2
ffff8bb0:	e20cc01f 	and	ip, ip, #31
ffff8bb4:	526c2000 	rsbpl	r2, ip, #0
ffff8bb8:	e2833427 	add	r3, r3, #654311424	; 0x27000000
ffff8bbc:	e3a0c001 	mov	ip, #1
ffff8bc0:	e3510000 	cmp	r1, #0
ffff8bc4:	e5930020 	ldr	r0, [r3, #32]
ffff8bc8:	e1a0221c 	lsl	r2, ip, r2
ffff8bcc:	e1c00002 	bic	r0, r0, r2
ffff8bd0:	11800002 	orrne	r0, r0, r2
ffff8bd4:	e5830020 	str	r0, [r3, #32]
ffff8bd8:	e8bd8010 	pop	{r4, pc}

ffff8bdc <cmu_clkgrp_enable>:
ffff8bdc:	e92d4070 	push	{r4, r5, r6, lr}
ffff8be0:	ebfffeff 	bl	ffff87e4 <get_clk_priv>
ffff8be4:	e1a05000 	mov	r5, r0
ffff8be8:	e5900010 	ldr	r0, [r0, #16]
ffff8bec:	ebfffefc 	bl	ffff87e4 <get_clk_priv>
ffff8bf0:	e595e00c 	ldr	lr, [r5, #12]
ffff8bf4:	e3a03020 	mov	r3, #32
ffff8bf8:	e590c00c 	ldr	ip, [r0, #12]
ffff8bfc:	e27e2000 	rsbs	r2, lr, #0
ffff8c00:	e716f31e 	sdiv	r6, lr, r3
ffff8c04:	e202201f 	and	r2, r2, #31
ffff8c08:	e20ee01f 	and	lr, lr, #31
ffff8c0c:	5262e000 	rsbpl	lr, r2, #0
ffff8c10:	e27c2000 	rsbs	r2, ip, #0
ffff8c14:	e714f31c 	sdiv	r4, ip, r3
ffff8c18:	e202201f 	and	r2, r2, #31
ffff8c1c:	e20cc01f 	and	ip, ip, #31
ffff8c20:	5262c000 	rsbpl	ip, r2, #0
ffff8c24:	e3510000 	cmp	r1, #0
ffff8c28:	e5951000 	ldr	r1, [r5]
ffff8c2c:	e1a06106 	lsl	r6, r6, #2
ffff8c30:	e0811006 	add	r1, r1, r6
ffff8c34:	e5905000 	ldr	r5, [r0]
ffff8c38:	e5902014 	ldr	r2, [r0, #20]
ffff8c3c:	e3a00001 	mov	r0, #1
ffff8c40:	e1a04104 	lsl	r4, r4, #2
ffff8c44:	e5916010 	ldr	r6, [r1, #16]
ffff8c48:	0a000010 	beq	ffff8c90 <cmu_clkgrp_enable+0xb4>
ffff8c4c:	e713f312 	sdiv	r3, r2, r3
ffff8c50:	e0854004 	add	r4, r5, r4
ffff8c54:	e186ee10 	orr	lr, r6, r0, lsl lr
ffff8c58:	e581e010 	str	lr, [r1, #16]
ffff8c5c:	e5941010 	ldr	r1, [r4, #16]
ffff8c60:	e1a03103 	lsl	r3, r3, #2
ffff8c64:	e181cc10 	orr	ip, r1, r0, lsl ip
ffff8c68:	e2833427 	add	r3, r3, #654311424	; 0x27000000
ffff8c6c:	e584c010 	str	ip, [r4, #16]
ffff8c70:	e272c000 	rsbs	ip, r2, #0
ffff8c74:	e202201f 	and	r2, r2, #31
ffff8c78:	e5931050 	ldr	r1, [r3, #80]	; 0x50
ffff8c7c:	e20cc01f 	and	ip, ip, #31
ffff8c80:	526c2000 	rsbpl	r2, ip, #0
ffff8c84:	e1812210 	orr	r2, r1, r0, lsl r2
ffff8c88:	e5832050 	str	r2, [r3, #80]	; 0x50
ffff8c8c:	e8bd8070 	pop	{r4, r5, r6, pc}
ffff8c90:	e713f312 	sdiv	r3, r2, r3
ffff8c94:	e0854004 	add	r4, r5, r4
ffff8c98:	e1c6ee10 	bic	lr, r6, r0, lsl lr
ffff8c9c:	e581e010 	str	lr, [r1, #16]
ffff8ca0:	e5941010 	ldr	r1, [r4, #16]
ffff8ca4:	e1a03103 	lsl	r3, r3, #2
ffff8ca8:	e1c1cc10 	bic	ip, r1, r0, lsl ip
ffff8cac:	e2833427 	add	r3, r3, #654311424	; 0x27000000
ffff8cb0:	e584c010 	str	ip, [r4, #16]
ffff8cb4:	e272c000 	rsbs	ip, r2, #0
ffff8cb8:	e202201f 	and	r2, r2, #31
ffff8cbc:	e5931040 	ldr	r1, [r3, #64]	; 0x40
ffff8cc0:	e20cc01f 	and	ip, ip, #31
ffff8cc4:	526c2000 	rsbpl	r2, ip, #0
ffff8cc8:	e1c12210 	bic	r2, r1, r0, lsl r2
ffff8ccc:	e5832040 	str	r2, [r3, #64]	; 0x40
ffff8cd0:	e8bd8070 	pop	{r4, r5, r6, pc}

ffff8cd4 <clock_information>:
ffff8cd4:	e92d40f7 	push	{r0, r1, r2, r4, r5, r6, r7, lr}
ffff8cd8:	e3a00000 	mov	r0, #0
ffff8cdc:	ebfffe26 	bl	ffff857c <get_pll_freq>
ffff8ce0:	e1a04000 	mov	r4, r0
ffff8ce4:	e3a00001 	mov	r0, #1
ffff8ce8:	ebfffe23 	bl	ffff857c <get_pll_freq>
ffff8cec:	e1a05000 	mov	r5, r0
ffff8cf0:	e3a00002 	mov	r0, #2
ffff8cf4:	ebfffe20 	bl	ffff857c <get_pll_freq>
ffff8cf8:	e1a06000 	mov	r6, r0
ffff8cfc:	e3a00003 	mov	r0, #3
ffff8d00:	ebfffe1d 	bl	ffff857c <get_pll_freq>
ffff8d04:	e1a07000 	mov	r7, r0
ffff8d08:	e3a00004 	mov	r0, #4
ffff8d0c:	ebfffe1a 	bl	ffff857c <get_pll_freq>
ffff8d10:	e58d0004 	str	r0, [sp, #4]
ffff8d14:	e1a03006 	mov	r3, r6
ffff8d18:	e58d7000 	str	r7, [sp]
ffff8d1c:	e1a02005 	mov	r2, r5
ffff8d20:	e59f0050 	ldr	r0, [pc, #80]	; ffff8d78 <clock_information+0xa4>
ffff8d24:	e1a01004 	mov	r1, r4
ffff8d28:	eb00013d 	bl	ffff9224 <printf>
ffff8d2c:	e3a00216 	mov	r0, #1610612737	; 0x60000001
ffff8d30:	ebffff5c 	bl	ffff8aa8 <cmu_get_rate>
ffff8d34:	e1a04000 	mov	r4, r0
ffff8d38:	e3a00236 	mov	r0, #1610612739	; 0x60000003
ffff8d3c:	ebffff59 	bl	ffff8aa8 <cmu_get_rate>
ffff8d40:	e1a05000 	mov	r5, r0
ffff8d44:	e3a00225 	mov	r0, #1342177282	; 0x50000002
ffff8d48:	ebffff56 	bl	ffff8aa8 <cmu_get_rate>
ffff8d4c:	e1a06000 	mov	r6, r0
ffff8d50:	e3a00201 	mov	r0, #268435456	; 0x10000000
ffff8d54:	ebffff53 	bl	ffff8aa8 <cmu_get_rate>
ffff8d58:	e58d0000 	str	r0, [sp]
ffff8d5c:	e1a03006 	mov	r3, r6
ffff8d60:	e59f0014 	ldr	r0, [pc, #20]	; ffff8d7c <clock_information+0xa8>
ffff8d64:	e1a02005 	mov	r2, r5
ffff8d68:	e1a01004 	mov	r1, r4
ffff8d6c:	eb00012c 	bl	ffff9224 <printf>
ffff8d70:	e28dd00c 	add	sp, sp, #12
ffff8d74:	e8bd80f0 	pop	{r4, r5, r6, r7, pc}
ffff8d78:	ffffb318 	.word	0xffffb318
ffff8d7c:	ffffb360 	.word	0xffffb360

ffff8d80 <clock_initialize>:
ffff8d80:	e92d41f0 	push	{r4, r5, r6, r7, r8, lr}
ffff8d84:	e3a00003 	mov	r0, #3
ffff8d88:	e59f40ec 	ldr	r4, [pc, #236]	; ffff8e7c <clock_initialize+0xfc>
ffff8d8c:	e24dd020 	sub	sp, sp, #32
ffff8d90:	e5943000 	ldr	r3, [r4]
ffff8d94:	e5932048 	ldr	r2, [r3, #72]	; 0x48
ffff8d98:	e5931044 	ldr	r1, [r3, #68]	; 0x44
ffff8d9c:	ebfffe1e 	bl	ffff861c <get_pre_pll_freq>
ffff8da0:	e5943000 	ldr	r3, [r4]
ffff8da4:	e1a07000 	mov	r7, r0
ffff8da8:	e3a00003 	mov	r0, #3
ffff8dac:	e5932048 	ldr	r2, [r3, #72]	; 0x48
ffff8db0:	e5931044 	ldr	r1, [r3, #68]	; 0x44
ffff8db4:	ebfffe18 	bl	ffff861c <get_pre_pll_freq>
ffff8db8:	e5943000 	ldr	r3, [r4]
ffff8dbc:	e1a06000 	mov	r6, r0
ffff8dc0:	e3a00002 	mov	r0, #2
ffff8dc4:	e593203c 	ldr	r2, [r3, #60]	; 0x3c
ffff8dc8:	e5931038 	ldr	r1, [r3, #56]	; 0x38
ffff8dcc:	ebfffe12 	bl	ffff861c <get_pre_pll_freq>
ffff8dd0:	e1a08000 	mov	r8, r0
ffff8dd4:	e3a00201 	mov	r0, #268435456	; 0x10000000
ffff8dd8:	ebfffed8 	bl	ffff8940 <get_src_mux>
ffff8ddc:	e5942000 	ldr	r2, [r4]
ffff8de0:	e3a0300c 	mov	r3, #12
ffff8de4:	e59f4094 	ldr	r4, [pc, #148]	; ffff8e80 <clock_initialize+0x100>
ffff8de8:	e0232093 	mla	r3, r3, r0, r2
ffff8dec:	e5932024 	ldr	r2, [r3, #36]	; 0x24
ffff8df0:	e5931020 	ldr	r1, [r3, #32]
ffff8df4:	ebfffe08 	bl	ffff861c <get_pre_pll_freq>
ffff8df8:	e59f1084 	ldr	r1, [pc, #132]	; ffff8e84 <clock_initialize+0x104>
ffff8dfc:	e1a05000 	mov	r5, r0
ffff8e00:	e28d3004 	add	r3, sp, #4
ffff8e04:	e1a0200d 	mov	r2, sp
ffff8e08:	e1a00007 	mov	r0, r7
ffff8e0c:	ebfffec0 	bl	ffff8914 <get_optimal_div>
ffff8e10:	e28d300c 	add	r3, sp, #12
ffff8e14:	e28d2008 	add	r2, sp, #8
ffff8e18:	e1a01004 	mov	r1, r4
ffff8e1c:	e1a00006 	mov	r0, r6
ffff8e20:	ebfffebb 	bl	ffff8914 <get_optimal_div>
ffff8e24:	e59f105c 	ldr	r1, [pc, #92]	; ffff8e88 <clock_initialize+0x108>
ffff8e28:	e28d3014 	add	r3, sp, #20
ffff8e2c:	e28d2010 	add	r2, sp, #16
ffff8e30:	e1a00008 	mov	r0, r8
ffff8e34:	ebfffeb6 	bl	ffff8914 <get_optimal_div>
ffff8e38:	e28d301c 	add	r3, sp, #28
ffff8e3c:	e28d2018 	add	r2, sp, #24
ffff8e40:	e1a01004 	mov	r1, r4
ffff8e44:	e1a00005 	mov	r0, r5
ffff8e48:	ebfffeb1 	bl	ffff8914 <get_optimal_div>
ffff8e4c:	e3a03423 	mov	r3, #587202560	; 0x23000000
ffff8e50:	e3a02001 	mov	r2, #1
ffff8e54:	e3a01002 	mov	r1, #2
ffff8e58:	e5832260 	str	r2, [r3, #608]	; 0x260
ffff8e5c:	e5831460 	str	r1, [r3, #1120]	; 0x460
ffff8e60:	e5832464 	str	r2, [r3, #1124]	; 0x464
ffff8e64:	ebfffe38 	bl	ffff874c <pll_initialize>
ffff8e68:	e2900000 	adds	r0, r0, #0
ffff8e6c:	13a00001 	movne	r0, #1
ffff8e70:	e2600000 	rsb	r0, r0, #0
ffff8e74:	e28dd020 	add	sp, sp, #32
ffff8e78:	e8bd81f0 	pop	{r4, r5, r6, r7, r8, pc}
ffff8e7c:	ffffd0e0 	.word	0xffffd0e0
ffff8e80:	05f5e100 	.word	0x05f5e100
ffff8e84:	0bebc200 	.word	0x0bebc200
ffff8e88:	17d78400 	.word	0x17d78400

ffff8e8c <serial_set_baudrate>:
ffff8e8c:	e2800d81 	add	r0, r0, #8256	; 0x2040
ffff8e90:	e24dd008 	sub	sp, sp, #8
ffff8e94:	e1a00800 	lsl	r0, r0, #16
ffff8e98:	e58d0004 	str	r0, [sp, #4]
ffff8e9c:	e59d2004 	ldr	r2, [sp, #4]
ffff8ea0:	e592300c 	ldr	r3, [r2, #12]
ffff8ea4:	e3833080 	orr	r3, r3, #128	; 0x80
ffff8ea8:	e582300c 	str	r3, [r2, #12]
ffff8eac:	e3a02036 	mov	r2, #54	; 0x36
ffff8eb0:	e59d3004 	ldr	r3, [sp, #4]
ffff8eb4:	e5832000 	str	r2, [r3]
ffff8eb8:	e3a02010 	mov	r2, #16
ffff8ebc:	e59d3004 	ldr	r3, [sp, #4]
ffff8ec0:	e58320c0 	str	r2, [r3, #192]	; 0xc0
ffff8ec4:	e59d2004 	ldr	r2, [sp, #4]
ffff8ec8:	e592300c 	ldr	r3, [r2, #12]
ffff8ecc:	e3c33080 	bic	r3, r3, #128	; 0x80
ffff8ed0:	e582300c 	str	r3, [r2, #12]
ffff8ed4:	e28dd008 	add	sp, sp, #8
ffff8ed8:	e12fff1e 	bx	lr

ffff8edc <serial_init>:
ffff8edc:	e2803d81 	add	r3, r0, #8256	; 0x2040
ffff8ee0:	e92d40f7 	push	{r0, r1, r2, r4, r5, r6, r7, lr}
ffff8ee4:	e1a04000 	mov	r4, r0
ffff8ee8:	e59f509c 	ldr	r5, [pc, #156]	; ffff8f8c <serial_init+0xb0>
ffff8eec:	e3a07000 	mov	r7, #0
ffff8ef0:	e59f6098 	ldr	r6, [pc, #152]	; ffff8f90 <serial_init+0xb4>
ffff8ef4:	e1a03803 	lsl	r3, r3, #16
ffff8ef8:	e59f1094 	ldr	r1, [pc, #148]	; ffff8f94 <serial_init+0xb8>
ffff8efc:	e59f0094 	ldr	r0, [pc, #148]	; ffff8f98 <serial_init+0xbc>
ffff8f00:	e58d7004 	str	r7, [sp, #4]
ffff8f04:	e5853000 	str	r3, [r5]
ffff8f08:	ebfffe91 	bl	ffff8954 <cmu_set_rate>
ffff8f0c:	e59f1088 	ldr	r1, [pc, #136]	; ffff8f9c <serial_init+0xc0>
ffff8f10:	e1a00006 	mov	r0, r6
ffff8f14:	ebfffe8e 	bl	ffff8954 <cmu_set_rate>
ffff8f18:	e3a01001 	mov	r1, #1
ffff8f1c:	e1a00006 	mov	r0, r6
ffff8f20:	ebfffefd 	bl	ffff8b1c <cmu_clk_enable>
ffff8f24:	e1a00006 	mov	r0, r6
ffff8f28:	e59f6070 	ldr	r6, [pc, #112]	; ffff8fa0 <serial_init+0xc4>
ffff8f2c:	ebfffedd 	bl	ffff8aa8 <cmu_get_rate>
ffff8f30:	e59f206c 	ldr	r2, [pc, #108]	; ffff8fa4 <serial_init+0xc8>
ffff8f34:	e1a01000 	mov	r1, r0
ffff8f38:	e1a00004 	mov	r0, r4
ffff8f3c:	e1a04184 	lsl	r4, r4, #3
ffff8f40:	ebffffd1 	bl	ffff8e8c <serial_set_baudrate>
ffff8f44:	e0860004 	add	r0, r6, r4
ffff8f48:	e2844004 	add	r4, r4, #4
ffff8f4c:	eb00059d 	bl	ffffa5c8 <nx_gpio_set_alt>
ffff8f50:	e0860004 	add	r0, r6, r4
ffff8f54:	eb00059b 	bl	ffffa5c8 <nx_gpio_set_alt>
ffff8f58:	e3a03007 	mov	r3, #7
ffff8f5c:	e1a00007 	mov	r0, r7
ffff8f60:	e58d3004 	str	r3, [sp, #4]
ffff8f64:	e5953000 	ldr	r3, [r5]
ffff8f68:	e59d2004 	ldr	r2, [sp, #4]
ffff8f6c:	e5832008 	str	r2, [r3, #8]
ffff8f70:	e3a03003 	mov	r3, #3
ffff8f74:	e58d3004 	str	r3, [sp, #4]
ffff8f78:	e5953000 	ldr	r3, [r5]
ffff8f7c:	e59d2004 	ldr	r2, [sp, #4]
ffff8f80:	e583200c 	str	r2, [r3, #12]
ffff8f84:	e28dd00c 	add	sp, sp, #12
ffff8f88:	e8bd80f0 	pop	{r4, r5, r6, r7, pc}
ffff8f8c:	ffffd0e8 	.word	0xffffd0e8
ffff8f90:	10000051 	.word	0x10000051
ffff8f94:	0bebc200 	.word	0x0bebc200
ffff8f98:	10000058 	.word	0x10000058
ffff8f9c:	05f5e100 	.word	0x05f5e100
ffff8fa0:	ffffcfc8 	.word	0xffffcfc8
ffff8fa4:	0001c200 	.word	0x0001c200

ffff8fa8 <serial_is_tx_empty>:
ffff8fa8:	e59f300c 	ldr	r3, [pc, #12]	; ffff8fbc <serial_is_tx_empty+0x14>
ffff8fac:	e5933000 	ldr	r3, [r3]
ffff8fb0:	e593007c 	ldr	r0, [r3, #124]	; 0x7c
ffff8fb4:	e2000004 	and	r0, r0, #4
ffff8fb8:	e12fff1e 	bx	lr
ffff8fbc:	ffffd0e8 	.word	0xffffd0e8

ffff8fc0 <serial_is_rx_empty>:
ffff8fc0:	e59f3010 	ldr	r3, [pc, #16]	; ffff8fd8 <serial_is_rx_empty+0x18>
ffff8fc4:	e5933000 	ldr	r3, [r3]
ffff8fc8:	e593007c 	ldr	r0, [r3, #124]	; 0x7c
ffff8fcc:	e2200008 	eor	r0, r0, #8
ffff8fd0:	e7e001d0 	ubfx	r0, r0, #3, #1
ffff8fd4:	e12fff1e 	bx	lr
ffff8fd8:	ffffd0e8 	.word	0xffffd0e8

ffff8fdc <serial_getc>:
ffff8fdc:	e59f301c 	ldr	r3, [pc, #28]	; ffff9000 <serial_getc+0x24>
ffff8fe0:	e5932000 	ldr	r2, [r3]
ffff8fe4:	e592207c 	ldr	r2, [r2, #124]	; 0x7c
ffff8fe8:	e3120008 	tst	r2, #8
ffff8fec:	0afffffb 	beq	ffff8fe0 <serial_getc+0x4>
ffff8ff0:	e5933000 	ldr	r3, [r3]
ffff8ff4:	e5930000 	ldr	r0, [r3]
ffff8ff8:	e6ef0070 	uxtb	r0, r0
ffff8ffc:	e12fff1e 	bx	lr
ffff9000:	ffffd0e8 	.word	0xffffd0e8

ffff9004 <serial_putc>:
ffff9004:	e59f3018 	ldr	r3, [pc, #24]	; ffff9024 <serial_putc+0x20>
ffff9008:	e5932000 	ldr	r2, [r3]
ffff900c:	e592207c 	ldr	r2, [r2, #124]	; 0x7c
ffff9010:	e3120002 	tst	r2, #2
ffff9014:	0afffffb 	beq	ffff9008 <serial_putc+0x4>
ffff9018:	e5933000 	ldr	r3, [r3]
ffff901c:	e5830000 	str	r0, [r3]
ffff9020:	e12fff1e 	bx	lr
ffff9024:	ffffd0e8 	.word	0xffffd0e8

ffff9028 <serial_is_busy>:
ffff9028:	e59f300c 	ldr	r3, [pc, #12]	; ffff903c <serial_is_busy+0x14>
ffff902c:	e5933000 	ldr	r3, [r3]
ffff9030:	e593007c 	ldr	r0, [r3, #124]	; 0x7c
ffff9034:	e2000001 	and	r0, r0, #1
ffff9038:	e12fff1e 	bx	lr
ffff903c:	ffffd0e8 	.word	0xffffd0e8

ffff9040 <serial_is_uart_tx_done>:
ffff9040:	e59f3020 	ldr	r3, [pc, #32]	; ffff9068 <serial_is_uart_tx_done+0x28>
ffff9044:	e5932000 	ldr	r2, [r3]
ffff9048:	e592007c 	ldr	r0, [r2, #124]	; 0x7c
ffff904c:	e5933000 	ldr	r3, [r3]
ffff9050:	e2200004 	eor	r0, r0, #4
ffff9054:	e593307c 	ldr	r3, [r3, #124]	; 0x7c
ffff9058:	e1e03003 	mvn	r3, r3
ffff905c:	e2033001 	and	r3, r3, #1
ffff9060:	e0030120 	and	r0, r3, r0, lsr #2
ffff9064:	e12fff1e 	bx	lr
ffff9068:	ffffd0e8 	.word	0xffffd0e8

ffff906c <prints.constprop.2>:
ffff906c:	e92d41f0 	push	{r4, r5, r6, r7, r8, lr}
ffff9070:	e2514000 	subs	r4, r1, #0
ffff9074:	e1a05000 	mov	r5, r0
ffff9078:	d3a06020 	movle	r6, #32
ffff907c:	da00000a 	ble	ffff90ac <prints.constprop.2+0x40>
ffff9080:	e1a03000 	mov	r3, r0
ffff9084:	e0430005 	sub	r0, r3, r5
ffff9088:	e4d31001 	ldrb	r1, [r3], #1
ffff908c:	e3510000 	cmp	r1, #0
ffff9090:	1afffffb 	bne	ffff9084 <prints.constprop.2+0x18>
ffff9094:	e1540000 	cmp	r4, r0
ffff9098:	c0444000 	subgt	r4, r4, r0
ffff909c:	d1a04001 	movle	r4, r1
ffff90a0:	e3120002 	tst	r2, #2
ffff90a4:	03a06020 	moveq	r6, #32
ffff90a8:	13a06030 	movne	r6, #48	; 0x30
ffff90ac:	e3120001 	tst	r2, #1
ffff90b0:	01a07004 	moveq	r7, r4
ffff90b4:	06ef8076 	uxtbeq	r8, r6
ffff90b8:	0a000004 	beq	ffff90d0 <prints.constprop.2+0x64>
ffff90bc:	e3a03000 	mov	r3, #0
ffff90c0:	ea000006 	b	ffff90e0 <prints.constprop.2+0x74>
ffff90c4:	e1a00008 	mov	r0, r8
ffff90c8:	e2477001 	sub	r7, r7, #1
ffff90cc:	ebffffcc 	bl	ffff9004 <serial_putc>
ffff90d0:	e3570000 	cmp	r7, #0
ffff90d4:	cafffffa 	bgt	ffff90c4 <prints.constprop.2+0x58>
ffff90d8:	e1c43fc4 	bic	r3, r4, r4, asr #31
ffff90dc:	e0444003 	sub	r4, r4, r3
ffff90e0:	e0437005 	sub	r7, r3, r5
ffff90e4:	e0878005 	add	r8, r7, r5
ffff90e8:	e4d50001 	ldrb	r0, [r5], #1
ffff90ec:	e3500000 	cmp	r0, #0
ffff90f0:	1a000007 	bne	ffff9114 <prints.constprop.2+0xa8>
ffff90f4:	e1a05004 	mov	r5, r4
ffff90f8:	e6ef6076 	uxtb	r6, r6
ffff90fc:	e3550000 	cmp	r5, #0
ffff9100:	ca000005 	bgt	ffff911c <prints.constprop.2+0xb0>
ffff9104:	e3540000 	cmp	r4, #0
ffff9108:	a0880004 	addge	r0, r8, r4
ffff910c:	b2880000 	addlt	r0, r8, #0
ffff9110:	e8bd81f0 	pop	{r4, r5, r6, r7, r8, pc}
ffff9114:	ebffffba 	bl	ffff9004 <serial_putc>
ffff9118:	eafffff1 	b	ffff90e4 <prints.constprop.2+0x78>
ffff911c:	e1a00006 	mov	r0, r6
ffff9120:	e2455001 	sub	r5, r5, #1
ffff9124:	ebffffb6 	bl	ffff9004 <serial_putc>
ffff9128:	eafffff3 	b	ffff90fc <prints.constprop.2+0x90>

ffff912c <printi.constprop.1>:
ffff912c:	e92d47ff 	push	{r0, r1, r2, r3, r4, r5, r6, r7, r8, r9, sl, lr}
ffff9130:	e2504000 	subs	r4, r0, #0
ffff9134:	e59d7030 	ldr	r7, [sp, #48]	; 0x30
ffff9138:	e1a06003 	mov	r6, r3
ffff913c:	1a000008 	bne	ffff9164 <printi.constprop.1+0x38>
ffff9140:	e5cd4005 	strb	r4, [sp, #5]
ffff9144:	e3a03030 	mov	r3, #48	; 0x30
ffff9148:	e5cd3004 	strb	r3, [sp, #4]
ffff914c:	e1a02007 	mov	r2, r7
ffff9150:	e1a01006 	mov	r1, r6
ffff9154:	e28d0004 	add	r0, sp, #4
ffff9158:	ebffffc3 	bl	ffff906c <prints.constprop.2>
ffff915c:	e28dd010 	add	sp, sp, #16
ffff9160:	e8bd87f0 	pop	{r4, r5, r6, r7, r8, r9, sl, pc}
ffff9164:	e2922000 	adds	r2, r2, #0
ffff9168:	e28da010 	add	sl, sp, #16
ffff916c:	e59d9034 	ldr	r9, [sp, #52]	; 0x34
ffff9170:	13a02001 	movne	r2, #1
ffff9174:	e351000a 	cmp	r1, #10
ffff9178:	e1a08001 	mov	r8, r1
ffff917c:	13a02000 	movne	r2, #0
ffff9180:	e249903a 	sub	r9, r9, #58	; 0x3a
ffff9184:	e0123fa4 	ands	r3, r2, r4, lsr #31
ffff9188:	e3a03000 	mov	r3, #0
ffff918c:	12644000 	rsbne	r4, r4, #0
ffff9190:	01a05003 	moveq	r5, r3
ffff9194:	e56a3001 	strb	r3, [sl, #-1]!
ffff9198:	13a05001 	movne	r5, #1
ffff919c:	e3540000 	cmp	r4, #0
ffff91a0:	1a00000e 	bne	ffff91e0 <printi.constprop.1+0xb4>
ffff91a4:	e3550000 	cmp	r5, #0
ffff91a8:	0a000006 	beq	ffff91c8 <printi.constprop.1+0x9c>
ffff91ac:	e3560000 	cmp	r6, #0
ffff91b0:	0a000016 	beq	ffff9210 <printi.constprop.1+0xe4>
ffff91b4:	e3170002 	tst	r7, #2
ffff91b8:	0a000014 	beq	ffff9210 <printi.constprop.1+0xe4>
ffff91bc:	e3a0002d 	mov	r0, #45	; 0x2d
ffff91c0:	e2466001 	sub	r6, r6, #1
ffff91c4:	ebffff8e 	bl	ffff9004 <serial_putc>
ffff91c8:	e1a02007 	mov	r2, r7
ffff91cc:	e1a01006 	mov	r1, r6
ffff91d0:	e1a0000a 	mov	r0, sl
ffff91d4:	ebffffa4 	bl	ffff906c <prints.constprop.2>
ffff91d8:	e0800005 	add	r0, r0, r5
ffff91dc:	eaffffde 	b	ffff915c <printi.constprop.1+0x30>
ffff91e0:	e1a01008 	mov	r1, r8
ffff91e4:	e1a00004 	mov	r0, r4
ffff91e8:	ebfffbeb 	bl	ffff819c <get_remainder>
ffff91ec:	e3500009 	cmp	r0, #9
ffff91f0:	e1a01008 	mov	r1, r8
ffff91f4:	c0800009 	addgt	r0, r0, r9
ffff91f8:	e2800030 	add	r0, r0, #48	; 0x30
ffff91fc:	e56a0001 	strb	r0, [sl, #-1]!
ffff9200:	e1a00004 	mov	r0, r4
ffff9204:	ebfffbbb 	bl	ffff80f8 <get_quotient>
ffff9208:	e1a04000 	mov	r4, r0
ffff920c:	eaffffe2 	b	ffff919c <printi.constprop.1+0x70>
ffff9210:	e3a0302d 	mov	r3, #45	; 0x2d
ffff9214:	e24aa001 	sub	sl, sl, #1
ffff9218:	e5ca3000 	strb	r3, [sl]
ffff921c:	e3a05000 	mov	r5, #0
ffff9220:	eaffffe8 	b	ffff91c8 <printi.constprop.1+0x9c>

ffff9224 <printf>:
ffff9224:	e92d000f 	push	{r0, r1, r2, r3}
ffff9228:	e92d43f0 	push	{r4, r5, r6, r7, r8, r9, lr}
ffff922c:	e24dd014 	sub	sp, sp, #20
ffff9230:	e59f8190 	ldr	r8, [pc, #400]	; ffff93c8 <printf+0x1a4>
ffff9234:	e3a05000 	mov	r5, #0
ffff9238:	e59d6030 	ldr	r6, [sp, #48]	; 0x30
ffff923c:	e3a0700a 	mov	r7, #10
ffff9240:	e28d4034 	add	r4, sp, #52	; 0x34
ffff9244:	e58d400c 	str	r4, [sp, #12]
ffff9248:	e5d63000 	ldrb	r3, [r6]
ffff924c:	e3530000 	cmp	r3, #0
ffff9250:	1a000004 	bne	ffff9268 <printf+0x44>
ffff9254:	e1a00005 	mov	r0, r5
ffff9258:	e28dd014 	add	sp, sp, #20
ffff925c:	e8bd43f0 	pop	{r4, r5, r6, r7, r8, r9, lr}
ffff9260:	e28dd010 	add	sp, sp, #16
ffff9264:	e12fff1e 	bx	lr
ffff9268:	e3530025 	cmp	r3, #37	; 0x25
ffff926c:	1a000051 	bne	ffff93b8 <printf+0x194>
ffff9270:	e5d63001 	ldrb	r3, [r6, #1]
ffff9274:	e2860001 	add	r0, r6, #1
ffff9278:	e3530000 	cmp	r3, #0
ffff927c:	0afffff4 	beq	ffff9254 <printf+0x30>
ffff9280:	e3530025 	cmp	r3, #37	; 0x25
ffff9284:	0a00004a 	beq	ffff93b4 <printf+0x190>
ffff9288:	e353002d 	cmp	r3, #45	; 0x2d
ffff928c:	02860002 	addeq	r0, r6, #2
ffff9290:	03a02001 	moveq	r2, #1
ffff9294:	13a02000 	movne	r2, #0
ffff9298:	e5d03000 	ldrb	r3, [r0]
ffff929c:	e2801001 	add	r1, r0, #1
ffff92a0:	e3530030 	cmp	r3, #48	; 0x30
ffff92a4:	0a000010 	beq	ffff92ec <printf+0xc8>
ffff92a8:	e3a03000 	mov	r3, #0
ffff92ac:	e5d01000 	ldrb	r1, [r0]
ffff92b0:	e1a06000 	mov	r6, r0
ffff92b4:	e2800001 	add	r0, r0, #1
ffff92b8:	e241c030 	sub	ip, r1, #48	; 0x30
ffff92bc:	e6efe07c 	uxtb	lr, ip
ffff92c0:	e35e0009 	cmp	lr, #9
ffff92c4:	9a00000b 	bls	ffff92f8 <printf+0xd4>
ffff92c8:	e3510073 	cmp	r1, #115	; 0x73
ffff92cc:	1a00000b 	bne	ffff9300 <printf+0xdc>
ffff92d0:	e5940000 	ldr	r0, [r4]
ffff92d4:	e2849004 	add	r9, r4, #4
ffff92d8:	e1a01003 	mov	r1, r3
ffff92dc:	e3500000 	cmp	r0, #0
ffff92e0:	01a00008 	moveq	r0, r8
ffff92e4:	ebffff60 	bl	ffff906c <prints.constprop.2>
ffff92e8:	ea00000e 	b	ffff9328 <printf+0x104>
ffff92ec:	e3822002 	orr	r2, r2, #2
ffff92f0:	e1a00001 	mov	r0, r1
ffff92f4:	eaffffe7 	b	ffff9298 <printf+0x74>
ffff92f8:	e023c397 	mla	r3, r7, r3, ip
ffff92fc:	eaffffea 	b	ffff92ac <printf+0x88>
ffff9300:	e3510064 	cmp	r1, #100	; 0x64
ffff9304:	1a00000b 	bne	ffff9338 <printf+0x114>
ffff9308:	e58d2000 	str	r2, [sp]
ffff930c:	e2849004 	add	r9, r4, #4
ffff9310:	e3a02001 	mov	r2, #1
ffff9314:	e3a01061 	mov	r1, #97	; 0x61
ffff9318:	e58d1004 	str	r1, [sp, #4]
ffff931c:	e3a0100a 	mov	r1, #10
ffff9320:	e5940000 	ldr	r0, [r4]
ffff9324:	ebffff80 	bl	ffff912c <printi.constprop.1>
ffff9328:	e0855000 	add	r5, r5, r0
ffff932c:	e1a04009 	mov	r4, r9
ffff9330:	e2866001 	add	r6, r6, #1
ffff9334:	eaffffc3 	b	ffff9248 <printf+0x24>
ffff9338:	e3510078 	cmp	r1, #120	; 0x78
ffff933c:	02849004 	addeq	r9, r4, #4
ffff9340:	03a01061 	moveq	r1, #97	; 0x61
ffff9344:	0a000003 	beq	ffff9358 <printf+0x134>
ffff9348:	e3510058 	cmp	r1, #88	; 0x58
ffff934c:	1a000006 	bne	ffff936c <printf+0x148>
ffff9350:	e2849004 	add	r9, r4, #4
ffff9354:	e3a01041 	mov	r1, #65	; 0x41
ffff9358:	e58d1004 	str	r1, [sp, #4]
ffff935c:	e3a01010 	mov	r1, #16
ffff9360:	e58d2000 	str	r2, [sp]
ffff9364:	e3a02000 	mov	r2, #0
ffff9368:	eaffffec 	b	ffff9320 <printf+0xfc>
ffff936c:	e3510075 	cmp	r1, #117	; 0x75
ffff9370:	1a000005 	bne	ffff938c <printf+0x168>
ffff9374:	e58d2000 	str	r2, [sp]
ffff9378:	e3a01061 	mov	r1, #97	; 0x61
ffff937c:	e58d1004 	str	r1, [sp, #4]
ffff9380:	e2849004 	add	r9, r4, #4
ffff9384:	e3a02000 	mov	r2, #0
ffff9388:	eaffffe3 	b	ffff931c <printf+0xf8>
ffff938c:	e3510063 	cmp	r1, #99	; 0x63
ffff9390:	1affffe6 	bne	ffff9330 <printf+0x10c>
ffff9394:	e5941000 	ldr	r1, [r4]
ffff9398:	e2849004 	add	r9, r4, #4
ffff939c:	e28d0008 	add	r0, sp, #8
ffff93a0:	e5cd1008 	strb	r1, [sp, #8]
ffff93a4:	e3a01000 	mov	r1, #0
ffff93a8:	e5cd1009 	strb	r1, [sp, #9]
ffff93ac:	e1a01003 	mov	r1, r3
ffff93b0:	eaffffcb 	b	ffff92e4 <printf+0xc0>
ffff93b4:	e1a06000 	mov	r6, r0
ffff93b8:	e5d60000 	ldrb	r0, [r6]
ffff93bc:	e2855001 	add	r5, r5, #1
ffff93c0:	ebffff0f 	bl	ffff9004 <serial_putc>
ffff93c4:	eaffffd9 	b	ffff9330 <printf+0x10c>
ffff93c8:	ffffb3b7 	.word	0xffffb3b7

ffff93cc <empty_printf>:
ffff93cc:	e92d000f 	push	{r0, r1, r2, r3}
ffff93d0:	e3a00000 	mov	r0, #0
ffff93d4:	e28dd010 	add	sp, sp, #16
ffff93d8:	e12fff1e 	bx	lr

ffff93dc <host_cmd_load_mr>:
ffff93dc:	e52de004 	push	{lr}		; (str lr, [sp, #-4]!)
ffff93e0:	e6efc072 	uxtb	ip, r2
ffff93e4:	e3a0e000 	mov	lr, #0
ffff93e8:	e3530001 	cmp	r3, #1
ffff93ec:	e7dfec1c 	bfi	lr, ip, #24, #8
ffff93f0:	33a03001 	movcc	r3, #1
ffff93f4:	e59fc034 	ldr	ip, [pc, #52]	; ffff9430 <host_cmd_load_mr+0x54>
ffff93f8:	e2433001 	sub	r3, r3, #1
ffff93fc:	e1a02422 	lsr	r2, r2, #8
ffff9400:	e2011003 	and	r1, r1, #3
ffff9404:	e7d7e01c 	bfi	lr, ip, #0, #24
ffff9408:	e3a0c000 	mov	ip, #0
ffff940c:	e7d4c613 	bfi	ip, r3, #12, #9
ffff9410:	e2803423 	add	r3, r0, #587202560	; 0x23000000
ffff9414:	e7cac411 	bfi	ip, r1, #8, #3
ffff9418:	e2833809 	add	r3, r3, #589824	; 0x90000
ffff941c:	e7c7c012 	bfi	ip, r2, #0, #8
ffff9420:	e583e000 	str	lr, [r3]
ffff9424:	e59f3008 	ldr	r3, [pc, #8]	; ffff9434 <host_cmd_load_mr+0x58>
ffff9428:	e780c003 	str	ip, [r0, r3]
ffff942c:	e49df004 	pop	{pc}		; (ldr pc, [sp], #4)
ffff9430:	00fff001 	.word	0x00fff001
ffff9434:	23090040 	.word	0x23090040

ffff9438 <host_cmd_load>:
ffff9438:	e3530001 	cmp	r3, #1
ffff943c:	b3a03001 	movlt	r3, #1
ffff9440:	e2433001 	sub	r3, r3, #1
ffff9444:	e1813603 	orr	r3, r1, r3, lsl #12
ffff9448:	e2801423 	add	r1, r0, #587202560	; 0x23000000
ffff944c:	e2811809 	add	r1, r1, #589824	; 0x90000
ffff9450:	e5812000 	str	r2, [r1]
ffff9454:	e59f2004 	ldr	r2, [pc, #4]	; ffff9460 <host_cmd_load+0x28>
ffff9458:	e7803002 	str	r3, [r0, r2]
ffff945c:	e12fff1e 	bx	lr
ffff9460:	23090040 	.word	0x23090040

ffff9464 <ctrl_set_init_values>:
ffff9464:	e92d4ff0 	push	{r4, r5, r6, r7, r8, r9, sl, fp, lr}
ffff9468:	e59f9370 	ldr	r9, [pc, #880]	; ffff97e0 <ctrl_set_init_values+0x37c>
ffff946c:	ed2d8b02 	vpush	{d8}
ffff9470:	e5994000 	ldr	r4, [r9]
ffff9474:	e24dd014 	sub	sp, sp, #20
ffff9478:	eeb68b00 	vmov.f64	d8, #96	; 0x60
ffff947c:	e5d4606c 	ldrb	r6, [r4, #108]	; 0x6c
ffff9480:	e5d4706d 	ldrb	r7, [r4, #109]	; 0x6d
ffff9484:	ee076a90 	vmov	s15, r6
ffff9488:	e59f5354 	ldr	r5, [pc, #852]	; ffff97e4 <ctrl_set_init_values+0x380>
ffff948c:	eeb80be7 	vcvt.f64.s32	d0, s15
ffff9490:	ee200b08 	vmul.f64	d0, d0, d8
ffff9494:	ebfffb0f 	bl	ffff80d8 <round_up>
ffff9498:	ee077a90 	vmov	s15, r7
ffff949c:	e1a0a000 	mov	sl, r0
ffff94a0:	eeb80be7 	vcvt.f64.s32	d0, s15
ffff94a4:	eeb77b00 	vmov.f64	d7, #112	; 0x70
ffff94a8:	ee300b07 	vadd.f64	d0, d0, d7
ffff94ac:	ee200b08 	vmul.f64	d0, d0, d8
ffff94b0:	ebfffb08 	bl	ffff80d8 <round_up>
ffff94b4:	e594b078 	ldr	fp, [r4, #120]	; 0x78
ffff94b8:	e3a03048 	mov	r3, #72	; 0x48
ffff94bc:	e58d300c 	str	r3, [sp, #12]
ffff94c0:	e3a02008 	mov	r2, #8
ffff94c4:	e59d300c 	ldr	r3, [sp, #12]
ffff94c8:	e1a08000 	mov	r8, r0
ffff94cc:	e7e5b65b 	ubfx	fp, fp, #12, #6
ffff94d0:	e5853050 	str	r3, [r5, #80]	; 0x50
ffff94d4:	e3a03000 	mov	r3, #0
ffff94d8:	e5853000 	str	r3, [r5]
ffff94dc:	e3a03004 	mov	r3, #4
ffff94e0:	e585300c 	str	r3, [r5, #12]
ffff94e4:	e5852000 	str	r2, [r5]
ffff94e8:	e585300c 	str	r3, [r5, #12]
ffff94ec:	e5993000 	ldr	r3, [r9]
ffff94f0:	e5d3005f 	ldrb	r0, [r3, #95]	; 0x5f
ffff94f4:	e5d3205e 	ldrb	r2, [r3, #94]	; 0x5e
ffff94f8:	e5d3e05d 	ldrb	lr, [r3, #93]	; 0x5d
ffff94fc:	e082c000 	add	ip, r2, r0
ffff9500:	e5d3105c 	ldrb	r1, [r3, #92]	; 0x5c
ffff9504:	e3a03001 	mov	r3, #1
ffff9508:	e082900e 	add	r9, r2, lr
ffff950c:	e18cc402 	orr	ip, ip, r2, lsl #8
ffff9510:	e18ccc00 	orr	ip, ip, r0, lsl #24
ffff9514:	e18cc809 	orr	ip, ip, r9, lsl #16
ffff9518:	e1a0ee13 	lsl	lr, r3, lr
ffff951c:	e1a02213 	lsl	r2, r3, r2
ffff9520:	e24ee001 	sub	lr, lr, #1
ffff9524:	e585c014 	str	ip, [r5, #20]
ffff9528:	e2422001 	sub	r2, r2, #1
ffff952c:	e1a01113 	lsl	r1, r3, r1
ffff9530:	e3a0c80a 	mov	ip, #655360	; 0xa0000
ffff9534:	e585e018 	str	lr, [r5, #24]
ffff9538:	e2411001 	sub	r1, r1, #1
ffff953c:	e585c01c 	str	ip, [r5, #28]
ffff9540:	e5852020 	str	r2, [r5, #32]
ffff9544:	e2402003 	sub	r2, r0, #3
ffff9548:	e1a01011 	lsl	r1, r1, r0
ffff954c:	e1a02213 	lsl	r2, r3, r2
ffff9550:	e5d49078 	ldrb	r9, [r4, #120]	; 0x78
ffff9554:	e242c001 	sub	ip, r2, #1
ffff9558:	e1a03013 	lsl	r3, r3, r0
ffff955c:	e1a02401 	lsl	r2, r1, #8
ffff9560:	e2433001 	sub	r3, r3, #1
ffff9564:	e182298c 	orr	r2, r2, ip, lsl #19
ffff9568:	e209903f 	and	r9, r9, #63	; 0x3f
ffff956c:	e1823003 	orr	r3, r2, r3
ffff9570:	e5853024 	str	r3, [r5, #36]	; 0x24
ffff9574:	e5d43066 	ldrb	r3, [r4, #102]	; 0x66
ffff9578:	e5d41080 	ldrb	r1, [r4, #128]	; 0x80
ffff957c:	e2432002 	sub	r2, r3, #2
ffff9580:	e1d436b4 	ldrh	r3, [r4, #100]	; 0x64
ffff9584:	e0861221 	add	r1, r6, r1, lsr #4
ffff9588:	e0466007 	sub	r6, r6, r7
ffff958c:	e2433002 	sub	r3, r3, #2
ffff9590:	e3833306 	orr	r3, r3, #402653184	; 0x18000000
ffff9594:	e2411002 	sub	r1, r1, #2
ffff9598:	e1833802 	orr	r3, r3, r2, lsl #16
ffff959c:	e58d300c 	str	r3, [sp, #12]
ffff95a0:	e59d300c 	ldr	r3, [sp, #12]
ffff95a4:	e1d427b8 	ldrh	r2, [r4, #120]	; 0x78
ffff95a8:	e5853028 	str	r3, [r5, #40]	; 0x28
ffff95ac:	e3023020 	movw	r3, #8224	; 0x2020
ffff95b0:	e58d300c 	str	r3, [sp, #12]
ffff95b4:	e59d300c 	ldr	r3, [sp, #12]
ffff95b8:	e7e52352 	ubfx	r2, r2, #6, #6
ffff95bc:	e585302c 	str	r3, [r5, #44]	; 0x2c
ffff95c0:	e202000f 	and	r0, r2, #15
ffff95c4:	e1a0320b 	lsl	r3, fp, #4
ffff95c8:	e3800821 	orr	r0, r0, #2162688	; 0x210000
ffff95cc:	e0411007 	sub	r1, r1, r7
ffff95d0:	e3800c31 	orr	r0, r0, #12544	; 0x3100
ffff95d4:	e58d2004 	str	r2, [sp, #4]
ffff95d8:	e6ef3073 	uxtb	r3, r3
ffff95dc:	e1833000 	orr	r3, r3, r0
ffff95e0:	e3a00002 	mov	r0, #2
ffff95e4:	e58d3000 	str	r3, [sp]
ffff95e8:	e713f011 	sdiv	r3, r1, r0
ffff95ec:	ee003a10 	vmov	s0, r3
ffff95f0:	e1a0bc0b 	lsl	fp, fp, #24
ffff95f4:	e59f71ec 	ldr	r7, [pc, #492]	; ffff97e8 <ctrl_set_init_values+0x384>
ffff95f8:	e20bb201 	and	fp, fp, #268435456	; 0x10000000
ffff95fc:	eeb80bc0 	vcvt.f64.s32	d0, s0
ffff9600:	ebfffab4 	bl	ffff80d8 <round_up>
ffff9604:	e59d3000 	ldr	r3, [sp]
ffff9608:	e04a1008 	sub	r1, sl, r8
ffff960c:	e2488002 	sub	r8, r8, #2
ffff9610:	e59d2004 	ldr	r2, [sp, #4]
ffff9614:	e281100a 	add	r1, r1, #10
ffff9618:	e1830c00 	orr	r0, r3, r0, lsl #24
ffff961c:	e3888473 	orr	r8, r8, #1929379840	; 0x73000000
ffff9620:	e1800e01 	orr	r0, r0, r1, lsl #28
ffff9624:	e58d000c 	str	r0, [sp, #12]
ffff9628:	e594107c 	ldr	r1, [r4, #124]	; 0x7c
ffff962c:	e59d300c 	ldr	r3, [sp, #12]
ffff9630:	e5d40073 	ldrb	r0, [r4, #115]	; 0x73
ffff9634:	e7e91551 	ubfx	r1, r1, #10, #10
ffff9638:	e5853030 	str	r3, [r5, #48]	; 0x30
ffff963c:	e200300f 	and	r3, r0, #15
ffff9640:	e1a00220 	lsr	r0, r0, #4
ffff9644:	e243c001 	sub	ip, r3, #1
ffff9648:	e1a03401 	lsl	r3, r1, #8
ffff964c:	e2400001 	sub	r0, r0, #1
ffff9650:	e1a02b82 	lsl	r2, r2, #23
ffff9654:	e6ff3073 	uxth	r3, r3
ffff9658:	e183380c 	orr	r3, r3, ip, lsl #16
ffff965c:	e2022302 	and	r2, r2, #134217728	; 0x8000000
ffff9660:	e1833000 	orr	r3, r3, r0
ffff9664:	e5d40075 	ldrb	r0, [r4, #117]	; 0x75
ffff9668:	e2400001 	sub	r0, r0, #1
ffff966c:	e1833a00 	orr	r3, r3, r0, lsl #20
ffff9670:	e1a00b09 	lsl	r0, r9, #22
ffff9674:	e1a09609 	lsl	r9, r9, #12
ffff9678:	e2000301 	and	r0, r0, #67108864	; 0x4000000
ffff967c:	e1833000 	orr	r3, r3, r0
ffff9680:	e6ff9079 	uxth	r9, r9
ffff9684:	e1833002 	orr	r3, r3, r2
ffff9688:	e1a02b01 	lsl	r2, r1, #22
ffff968c:	e2411001 	sub	r1, r1, #1
ffff9690:	e183300b 	orr	r3, r3, fp
ffff9694:	e2022101 	and	r2, r2, #1073741824	; 0x40000000
ffff9698:	e1833002 	orr	r3, r3, r2
ffff969c:	e58d300c 	str	r3, [sp, #12]
ffff96a0:	e59d300c 	ldr	r3, [sp, #12]
ffff96a4:	e5d4006e 	ldrb	r0, [r4, #110]	; 0x6e
ffff96a8:	e5853034 	str	r3, [r5, #52]	; 0x34
ffff96ac:	e5d4306a 	ldrb	r3, [r4, #106]	; 0x6a
ffff96b0:	e1a00220 	lsr	r0, r0, #4
ffff96b4:	e203200f 	and	r2, r3, #15
ffff96b8:	e2400001 	sub	r0, r0, #1
ffff96bc:	e1a03223 	lsr	r3, r3, #4
ffff96c0:	e1823803 	orr	r3, r2, r3, lsl #16
ffff96c4:	e2422001 	sub	r2, r2, #1
ffff96c8:	e1833400 	orr	r3, r3, r0, lsl #8
ffff96cc:	e28a0003 	add	r0, sl, #3
ffff96d0:	e1839009 	orr	r9, r3, r9
ffff96d4:	e24aa004 	sub	sl, sl, #4
ffff96d8:	e5d43080 	ldrb	r3, [r4, #128]	; 0x80
ffff96dc:	e1892c02 	orr	r2, r9, r2, lsl #24
ffff96e0:	e1822e00 	orr	r2, r2, r0, lsl #28
ffff96e4:	e3130001 	tst	r3, #1
ffff96e8:	e5d43069 	ldrb	r3, [r4, #105]	; 0x69
ffff96ec:	e188a80a 	orr	sl, r8, sl, lsl #16
ffff96f0:	e1a03223 	lsr	r3, r3, #4
ffff96f4:	12433001 	subne	r3, r3, #1
ffff96f8:	e1a03a03 	lsl	r3, r3, #20
ffff96fc:	e1823003 	orr	r3, r2, r3
ffff9700:	e58d300c 	str	r3, [sp, #12]
ffff9704:	e59d300c 	ldr	r3, [sp, #12]
ffff9708:	e59f20d4 	ldr	r2, [pc, #212]	; ffff97e4 <ctrl_set_init_values+0x380>
ffff970c:	e5823038 	str	r3, [r2, #56]	; 0x38
ffff9710:	e1d436b8 	ldrh	r3, [r4, #104]	; 0x68
ffff9714:	e7e53353 	ubfx	r3, r3, #6, #6
ffff9718:	e2430001 	sub	r0, r3, #1
ffff971c:	e5d43070 	ldrb	r3, [r4, #112]	; 0x70
ffff9720:	e203303f 	and	r3, r3, #63	; 0x3f
ffff9724:	e2433001 	sub	r3, r3, #1
ffff9728:	e1a03803 	lsl	r3, r3, #16
ffff972c:	e1833400 	orr	r3, r3, r0, lsl #8
ffff9730:	e5d40068 	ldrb	r0, [r4, #104]	; 0x68
ffff9734:	e200003f 	and	r0, r0, #63	; 0x3f
ffff9738:	e2400001 	sub	r0, r0, #1
ffff973c:	e1833000 	orr	r3, r3, r0
ffff9740:	e1831c01 	orr	r1, r3, r1, lsl #24
ffff9744:	e58d100c 	str	r1, [sp, #12]
ffff9748:	e3a01002 	mov	r1, #2
ffff974c:	e59d300c 	ldr	r3, [sp, #12]
ffff9750:	e59f0094 	ldr	r0, [pc, #148]	; ffff97ec <ctrl_set_init_values+0x388>
ffff9754:	e582303c 	str	r3, [r2, #60]	; 0x3c
ffff9758:	e5d43074 	ldrb	r3, [r4, #116]	; 0x74
ffff975c:	e1a03c03 	lsl	r3, r3, #24
ffff9760:	e3833002 	orr	r3, r3, #2
ffff9764:	e58d300c 	str	r3, [sp, #12]
ffff9768:	e59d300c 	ldr	r3, [sp, #12]
ffff976c:	e5823054 	str	r3, [r2, #84]	; 0x54
ffff9770:	e58d100c 	str	r1, [sp, #12]
ffff9774:	e59d300c 	ldr	r3, [sp, #12]
ffff9778:	e5823058 	str	r3, [r2, #88]	; 0x58
ffff977c:	e3a03000 	mov	r3, #0
ffff9780:	e5823040 	str	r3, [r2, #64]	; 0x40
ffff9784:	e1560003 	cmp	r6, r3
ffff9788:	c2466001 	subgt	r6, r6, #1
ffff978c:	e582004c 	str	r0, [r2, #76]	; 0x4c
ffff9790:	e716f116 	sdiv	r6, r6, r1
ffff9794:	e59f0054 	ldr	r0, [pc, #84]	; ffff97f0 <ctrl_set_init_values+0x38c>
ffff9798:	e1876406 	orr	r6, r7, r6, lsl #8
ffff979c:	e5821040 	str	r1, [r2, #64]	; 0x40
ffff97a0:	e582004c 	str	r0, [r2, #76]	; 0x4c
ffff97a4:	e58d600c 	str	r6, [sp, #12]
ffff97a8:	e59d100c 	ldr	r1, [sp, #12]
ffff97ac:	e5821040 	str	r1, [r2, #64]	; 0x40
ffff97b0:	e58da00c 	str	sl, [sp, #12]
ffff97b4:	e59d100c 	ldr	r1, [sp, #12]
ffff97b8:	e5821044 	str	r1, [r2, #68]	; 0x44
ffff97bc:	e58d300c 	str	r3, [sp, #12]
ffff97c0:	e59d100c 	ldr	r1, [sp, #12]
ffff97c4:	e5821140 	str	r1, [r2, #320]	; 0x140
ffff97c8:	e58d300c 	str	r3, [sp, #12]
ffff97cc:	e59d300c 	ldr	r3, [sp, #12]
ffff97d0:	e5823148 	str	r3, [r2, #328]	; 0x148
ffff97d4:	e28dd014 	add	sp, sp, #20
ffff97d8:	ecbd8b02 	vpop	{d8}
ffff97dc:	e8bd8ff0 	pop	{r4, r5, r6, r7, r8, r9, sl, fp, pc}
ffff97e0:	ffffd0e0 	.word	0xffffd0e0
ffff97e4:	23090000 	.word	0x23090000
ffff97e8:	00211000 	.word	0x00211000
ffff97ec:	00010002 	.word	0x00010002
ffff97f0:	00020001 	.word	0x00020001
ffff97f4:	00000000 	.word	0x00000000

ffff97f8 <hw_write_leveling>:
ffff97f8:	e59f3060 	ldr	r3, [pc, #96]	; ffff9860 <hw_write_leveling+0x68>
ffff97fc:	e3a02003 	mov	r2, #3
ffff9800:	e92d4070 	push	{r4, r5, r6, lr}
ffff9804:	e583214c 	str	r2, [r3, #332]	; 0x14c
ffff9808:	e3a02801 	mov	r2, #65536	; 0x10000
ffff980c:	e5832134 	str	r2, [r3, #308]	; 0x134
ffff9810:	e3a02205 	mov	r2, #1342177280	; 0x50000000
ffff9814:	e5832100 	str	r2, [r3, #256]	; 0x100
ffff9818:	e5930100 	ldr	r0, [r3, #256]	; 0x100
ffff981c:	e2104201 	ands	r4, r0, #268435456	; 0x10000000
ffff9820:	1afffffc 	bne	ffff9818 <hw_write_leveling+0x20>
ffff9824:	e5935148 	ldr	r5, [r3, #328]	; 0x148
ffff9828:	e59f0034 	ldr	r0, [pc, #52]	; ffff9864 <hw_write_leveling+0x6c>
ffff982c:	e2055003 	and	r5, r5, #3
ffff9830:	ebfffe7b 	bl	ffff9224 <printf>
ffff9834:	e59f302c 	ldr	r3, [pc, #44]	; ffff9868 <hw_write_leveling+0x70>
ffff9838:	e3550003 	cmp	r5, #3
ffff983c:	e59f1028 	ldr	r1, [pc, #40]	; ffff986c <hw_write_leveling+0x74>
ffff9840:	e1a02005 	mov	r2, r5
ffff9844:	e59f0024 	ldr	r0, [pc, #36]	; ffff9870 <hw_write_leveling+0x78>
ffff9848:	11a01003 	movne	r1, r3
ffff984c:	ebfffe74 	bl	ffff9224 <printf>
ffff9850:	e59f001c 	ldr	r0, [pc, #28]	; ffff9874 <hw_write_leveling+0x7c>
ffff9854:	ebfffe72 	bl	ffff9224 <printf>
ffff9858:	e1a00004 	mov	r0, r4
ffff985c:	e8bd8070 	pop	{r4, r5, r6, pc}
ffff9860:	23091000 	.word	0x23091000
ffff9864:	ffffb3ce 	.word	0xffffb3ce
ffff9868:	ffffb3c5 	.word	0xffffb3c5
ffff986c:	ffffb3be 	.word	0xffffb3be
ffff9870:	ffffb3fd 	.word	0xffffb3fd
ffff9874:	ffffb416 	.word	0xffffb416

ffff9878 <hw_bit_leveling_information>:
ffff9878:	e92d4ff7 	push	{r0, r1, r2, r4, r5, r6, r7, r8, r9, sl, fp, lr}
ffff987c:	e3a05000 	mov	r5, #0
ffff9880:	e59f0250 	ldr	r0, [pc, #592]	; ffff9ad8 <hw_bit_leveling_information+0x260>
ffff9884:	e59fb250 	ldr	fp, [pc, #592]	; ffff9adc <hw_bit_leveling_information+0x264>
ffff9888:	ebfffe65 	bl	ffff9224 <printf>
ffff988c:	e59f724c 	ldr	r7, [pc, #588]	; ffff9ae0 <hw_bit_leveling_information+0x268>
ffff9890:	e59f024c 	ldr	r0, [pc, #588]	; ffff9ae4 <hw_bit_leveling_information+0x26c>
ffff9894:	e59f824c 	ldr	r8, [pc, #588]	; ffff9ae8 <hw_bit_leveling_information+0x270>
ffff9898:	ebfffe61 	bl	ffff9224 <printf>
ffff989c:	e1a01005 	mov	r1, r5
ffff98a0:	e1a0000b 	mov	r0, fp
ffff98a4:	ebfffe5e 	bl	ffff9224 <printf>
ffff98a8:	e59741c0 	ldr	r4, [r7, #448]	; 0x1c0
ffff98ac:	e2853014 	add	r3, r5, #20
ffff98b0:	e1a04354 	asr	r4, r4, r3
ffff98b4:	e2144001 	ands	r4, r4, #1
ffff98b8:	1a000019 	bne	ffff9924 <hw_bit_leveling_information+0xac>
ffff98bc:	e065a185 	rsb	sl, r5, r5, lsl #3
ffff98c0:	e3a06001 	mov	r6, #1
ffff98c4:	e59f9220 	ldr	r9, [pc, #544]	; ffff9aec <hw_bit_leveling_information+0x274>
ffff98c8:	e18a3404 	orr	r3, sl, r4, lsl #8
ffff98cc:	e3540008 	cmp	r4, #8
ffff98d0:	e587312c 	str	r3, [r7, #300]	; 0x12c
ffff98d4:	e59721a0 	ldr	r2, [r7, #416]	; 0x1a0
ffff98d8:	e7e033d2 	ubfx	r3, r2, #7, #1
ffff98dc:	e202207f 	and	r2, r2, #127	; 0x7f
ffff98e0:	0a000061 	beq	ffff9a6c <hw_bit_leveling_information+0x1f4>
ffff98e4:	e3540009 	cmp	r4, #9
ffff98e8:	0a000056 	beq	ffff9a48 <hw_bit_leveling_information+0x1d0>
ffff98ec:	e59f11fc 	ldr	r1, [pc, #508]	; ffff9af0 <hw_bit_leveling_information+0x278>
ffff98f0:	e3530000 	cmp	r3, #0
ffff98f4:	11a03008 	movne	r3, r8
ffff98f8:	1a000003 	bne	ffff990c <hw_bit_leveling_information+0x94>
ffff98fc:	e59f01f0 	ldr	r0, [pc, #496]	; ffff9af4 <hw_bit_leveling_information+0x27c>
ffff9900:	e3520000 	cmp	r2, #0
ffff9904:	e59f31ec 	ldr	r3, [pc, #492]	; ffff9af8 <hw_bit_leveling_information+0x280>
ffff9908:	01a03000 	moveq	r3, r0
ffff990c:	e58d2000 	str	r2, [sp]
ffff9910:	e1a02004 	mov	r2, r4
ffff9914:	e59f01e0 	ldr	r0, [pc, #480]	; ffff9afc <hw_bit_leveling_information+0x284>
ffff9918:	ebfffe41 	bl	ffff9224 <printf>
ffff991c:	e356000a 	cmp	r6, #10
ffff9920:	1a000059 	bne	ffff9a8c <hw_bit_leveling_information+0x214>
ffff9924:	e2855001 	add	r5, r5, #1
ffff9928:	e3550002 	cmp	r5, #2
ffff992c:	1affffda 	bne	ffff989c <hw_bit_leveling_information+0x24>
ffff9930:	e59f01c8 	ldr	r0, [pc, #456]	; ffff9b00 <hw_bit_leveling_information+0x288>
ffff9934:	e3a05000 	mov	r5, #0
ffff9938:	e59fa19c 	ldr	sl, [pc, #412]	; ffff9adc <hw_bit_leveling_information+0x264>
ffff993c:	ebfffe38 	bl	ffff9224 <printf>
ffff9940:	e59f71bc 	ldr	r7, [pc, #444]	; ffff9b04 <hw_bit_leveling_information+0x28c>
ffff9944:	e59f6194 	ldr	r6, [pc, #404]	; ffff9ae0 <hw_bit_leveling_information+0x268>
ffff9948:	e1a01005 	mov	r1, r5
ffff994c:	e1a0000a 	mov	r0, sl
ffff9950:	ebfffe33 	bl	ffff9224 <printf>
ffff9954:	e59641ac 	ldr	r4, [r6, #428]	; 0x1ac
ffff9958:	e285300e 	add	r3, r5, #14
ffff995c:	e1a04354 	asr	r4, r4, r3
ffff9960:	e2144001 	ands	r4, r4, #1
ffff9964:	1a000017 	bne	ffff99c8 <hw_bit_leveling_information+0x150>
ffff9968:	e0658185 	rsb	r8, r5, r5, lsl #3
ffff996c:	e59f9180 	ldr	r9, [pc, #384]	; ffff9af4 <hw_bit_leveling_information+0x27c>
ffff9970:	e1883404 	orr	r3, r8, r4, lsl #8
ffff9974:	e3540008 	cmp	r4, #8
ffff9978:	e586312c 	str	r3, [r6, #300]	; 0x12c
ffff997c:	e5962194 	ldr	r2, [r6, #404]	; 0x194
ffff9980:	e7e033d2 	ubfx	r3, r2, #7, #1
ffff9984:	e202207f 	and	r2, r2, #127	; 0x7f
ffff9988:	0a000042 	beq	ffff9a98 <hw_bit_leveling_information+0x220>
ffff998c:	e59f115c 	ldr	r1, [pc, #348]	; ffff9af0 <hw_bit_leveling_information+0x278>
ffff9990:	e3530000 	cmp	r3, #0
ffff9994:	159f314c 	ldrne	r3, [pc, #332]	; ffff9ae8 <hw_bit_leveling_information+0x270>
ffff9998:	1a000003 	bne	ffff99ac <hw_bit_leveling_information+0x134>
ffff999c:	e3520000 	cmp	r2, #0
ffff99a0:	159f3150 	ldrne	r3, [pc, #336]	; ffff9af8 <hw_bit_leveling_information+0x280>
ffff99a4:	1a000000 	bne	ffff99ac <hw_bit_leveling_information+0x134>
ffff99a8:	e1a03009 	mov	r3, r9
ffff99ac:	e58d2000 	str	r2, [sp]
ffff99b0:	e1a02004 	mov	r2, r4
ffff99b4:	e59f0140 	ldr	r0, [pc, #320]	; ffff9afc <hw_bit_leveling_information+0x284>
ffff99b8:	e2844001 	add	r4, r4, #1
ffff99bc:	ebfffe18 	bl	ffff9224 <printf>
ffff99c0:	e3540009 	cmp	r4, #9
ffff99c4:	1affffe9 	bne	ffff9970 <hw_bit_leveling_information+0xf8>
ffff99c8:	e2855001 	add	r5, r5, #1
ffff99cc:	e3550002 	cmp	r5, #2
ffff99d0:	1affffdb 	bne	ffff9944 <hw_bit_leveling_information+0xcc>
ffff99d4:	e59f3104 	ldr	r3, [pc, #260]	; ffff9ae0 <hw_bit_leveling_information+0x268>
ffff99d8:	e3a00003 	mov	r0, #3
ffff99dc:	e59f5124 	ldr	r5, [pc, #292]	; ffff9b08 <hw_bit_leveling_information+0x290>
ffff99e0:	e5936160 	ldr	r6, [r3, #352]	; 0x160
ffff99e4:	ebfffae4 	bl	ffff857c <get_pll_freq>
ffff99e8:	e714f510 	sdiv	r4, r0, r5
ffff99ec:	e59f0118 	ldr	r0, [pc, #280]	; ffff9b0c <hw_bit_leveling_information+0x294>
ffff99f0:	e2066003 	and	r6, r6, #3
ffff99f4:	ebfffe0a 	bl	ffff9224 <printf>
ffff99f8:	e714f415 	sdiv	r4, r5, r4
ffff99fc:	e1a04084 	lsl	r4, r4, #1
ffff9a00:	e3a00003 	mov	r0, #3
ffff9a04:	ebfffadc 	bl	ffff857c <get_pll_freq>
ffff9a08:	e710f510 	sdiv	r0, r0, r5
ffff9a0c:	e714f614 	sdiv	r4, r4, r6
ffff9a10:	e711f015 	sdiv	r1, r5, r0
ffff9a14:	e59f00f4 	ldr	r0, [pc, #244]	; ffff9b10 <hw_bit_leveling_information+0x298>
ffff9a18:	e1a02004 	mov	r2, r4
ffff9a1c:	e1a01081 	lsl	r1, r1, #1
ffff9a20:	ebfffdff 	bl	ffff9224 <printf>
ffff9a24:	e59f00e8 	ldr	r0, [pc, #232]	; ffff9b14 <hw_bit_leveling_information+0x29c>
ffff9a28:	e1a01006 	mov	r1, r6
ffff9a2c:	e28dd00c 	add	sp, sp, #12
ffff9a30:	e8bd4ff0 	pop	{r4, r5, r6, r7, r8, r9, sl, fp, lr}
ffff9a34:	eafffdfa 	b	ffff9224 <printf>
ffff9a38:	e59f10c4 	ldr	r1, [pc, #196]	; ffff9b04 <hw_bit_leveling_information+0x28c>
ffff9a3c:	eaffffae 	b	ffff98fc <hw_bit_leveling_information+0x84>
ffff9a40:	e1a01009 	mov	r1, r9
ffff9a44:	eaffffac 	b	ffff98fc <hw_bit_leveling_information+0x84>
ffff9a48:	e3530000 	cmp	r3, #0
ffff9a4c:	0afffff9 	beq	ffff9a38 <hw_bit_leveling_information+0x1c0>
ffff9a50:	e58d2000 	str	r2, [sp]
ffff9a54:	e1a03008 	mov	r3, r8
ffff9a58:	e59f10a4 	ldr	r1, [pc, #164]	; ffff9b04 <hw_bit_leveling_information+0x28c>
ffff9a5c:	e1a02004 	mov	r2, r4
ffff9a60:	e59f0094 	ldr	r0, [pc, #148]	; ffff9afc <hw_bit_leveling_information+0x284>
ffff9a64:	ebfffdee 	bl	ffff9224 <printf>
ffff9a68:	eaffffad 	b	ffff9924 <hw_bit_leveling_information+0xac>
ffff9a6c:	e3530000 	cmp	r3, #0
ffff9a70:	0afffff2 	beq	ffff9a40 <hw_bit_leveling_information+0x1c8>
ffff9a74:	e58d2000 	str	r2, [sp]
ffff9a78:	e1a03008 	mov	r3, r8
ffff9a7c:	e59f0078 	ldr	r0, [pc, #120]	; ffff9afc <hw_bit_leveling_information+0x284>
ffff9a80:	e1a02004 	mov	r2, r4
ffff9a84:	e1a01009 	mov	r1, r9
ffff9a88:	ebfffde5 	bl	ffff9224 <printf>
ffff9a8c:	e2844001 	add	r4, r4, #1
ffff9a90:	e2866001 	add	r6, r6, #1
ffff9a94:	eaffff8b 	b	ffff98c8 <hw_bit_leveling_information+0x50>
ffff9a98:	e3530000 	cmp	r3, #0
ffff9a9c:	0a000009 	beq	ffff9ac8 <hw_bit_leveling_information+0x250>
ffff9aa0:	e59f3040 	ldr	r3, [pc, #64]	; ffff9ae8 <hw_bit_leveling_information+0x270>
ffff9aa4:	e58d2000 	str	r2, [sp]
ffff9aa8:	e59f004c 	ldr	r0, [pc, #76]	; ffff9afc <hw_bit_leveling_information+0x284>
ffff9aac:	e1a02004 	mov	r2, r4
ffff9ab0:	e1a01007 	mov	r1, r7
ffff9ab4:	ebfffdda 	bl	ffff9224 <printf>
ffff9ab8:	eaffffc2 	b	ffff99c8 <hw_bit_leveling_information+0x150>
ffff9abc:	e58d2000 	str	r2, [sp]
ffff9ac0:	e59f3030 	ldr	r3, [pc, #48]	; ffff9af8 <hw_bit_leveling_information+0x280>
ffff9ac4:	eafffff7 	b	ffff9aa8 <hw_bit_leveling_information+0x230>
ffff9ac8:	e3520000 	cmp	r2, #0
ffff9acc:	1afffffa 	bne	ffff9abc <hw_bit_leveling_information+0x244>
ffff9ad0:	e1a01007 	mov	r1, r7
ffff9ad4:	eaffffb3 	b	ffff99a8 <hw_bit_leveling_information+0x130>
ffff9ad8:	ffffb46a 	.word	0xffffb46a
ffff9adc:	ffffb4c8 	.word	0xffffb4c8
ffff9ae0:	23091000 	.word	0x23091000
ffff9ae4:	ffffb499 	.word	0xffffb499
ffff9ae8:	ffffb456 	.word	0xffffb456
ffff9aec:	ffffb44c 	.word	0xffffb44c
ffff9af0:	ffffb445 	.word	0xffffb445
ffff9af4:	ffffb44f 	.word	0xffffb44f
ffff9af8:	ffffb460 	.word	0xffffb460
ffff9afc:	ffffb4f8 	.word	0xffffb4f8
ffff9b00:	ffffb508 	.word	0xffffb508
ffff9b04:	ffffb448 	.word	0xffffb448
ffff9b08:	000f4240 	.word	0x000f4240
ffff9b0c:	ffffb416 	.word	0xffffb416
ffff9b10:	ffffb534 	.word	0xffffb534
ffff9b14:	ffffb564 	.word	0xffffb564

ffff9b18 <hw_bit_leveling>:
ffff9b18:	e59f30d0 	ldr	r3, [pc, #208]	; ffff9bf0 <hw_bit_leveling+0xd8>
ffff9b1c:	e3a02000 	mov	r2, #0
ffff9b20:	e92d4070 	push	{r4, r5, r6, lr}
ffff9b24:	e58321b8 	str	r2, [r3, #440]	; 0x1b8
ffff9b28:	e59f20c4 	ldr	r2, [pc, #196]	; ffff9bf4 <hw_bit_leveling+0xdc>
ffff9b2c:	e5832104 	str	r2, [r3, #260]	; 0x104
ffff9b30:	e5832108 	str	r2, [r3, #264]	; 0x108
ffff9b34:	e3a02702 	mov	r2, #524288	; 0x80000
ffff9b38:	e5832188 	str	r2, [r3, #392]	; 0x188
ffff9b3c:	e3a02411 	mov	r2, #285212672	; 0x11000000
ffff9b40:	e5832100 	str	r2, [r3, #256]	; 0x100
ffff9b44:	e5932100 	ldr	r2, [r3, #256]	; 0x100
ffff9b48:	e2122201 	ands	r2, r2, #268435456	; 0x10000000
ffff9b4c:	1afffffc 	bne	ffff9b44 <hw_bit_leveling+0x2c>
ffff9b50:	e5832188 	str	r2, [r3, #392]	; 0x188
ffff9b54:	e59f209c 	ldr	r2, [pc, #156]	; ffff9bf8 <hw_bit_leveling+0xe0>
ffff9b58:	e5832100 	str	r2, [r3, #256]	; 0x100
ffff9b5c:	e5933100 	ldr	r3, [r3, #256]	; 0x100
ffff9b60:	e59f3088 	ldr	r3, [pc, #136]	; ffff9bf0 <hw_bit_leveling+0xd8>
ffff9b64:	e5932100 	ldr	r2, [r3, #256]	; 0x100
ffff9b68:	e3120201 	tst	r2, #268435456	; 0x10000000
ffff9b6c:	1afffffc 	bne	ffff9b64 <hw_bit_leveling+0x4c>
ffff9b70:	e59321c0 	ldr	r2, [r3, #448]	; 0x1c0
ffff9b74:	e3a02001 	mov	r2, #1
ffff9b78:	e58321b8 	str	r2, [r3, #440]	; 0x1b8
ffff9b7c:	e3a02010 	mov	r2, #16
ffff9b80:	e5832140 	str	r2, [r3, #320]	; 0x140
ffff9b84:	e59f2070 	ldr	r2, [pc, #112]	; ffff9bfc <hw_bit_leveling+0xe4>
ffff9b88:	e5832104 	str	r2, [r3, #260]	; 0x104
ffff9b8c:	e59f206c 	ldr	r2, [pc, #108]	; ffff9c00 <hw_bit_leveling+0xe8>
ffff9b90:	e5832108 	str	r2, [r3, #264]	; 0x108
ffff9b94:	e3a02411 	mov	r2, #285212672	; 0x11000000
ffff9b98:	e5832100 	str	r2, [r3, #256]	; 0x100
ffff9b9c:	e59f304c 	ldr	r3, [pc, #76]	; ffff9bf0 <hw_bit_leveling+0xd8>
ffff9ba0:	e1a04003 	mov	r4, r3
ffff9ba4:	e5932100 	ldr	r2, [r3, #256]	; 0x100
ffff9ba8:	e3120201 	tst	r2, #268435456	; 0x10000000
ffff9bac:	1afffffc 	bne	ffff9ba4 <hw_bit_leveling+0x8c>
ffff9bb0:	e3a0230d 	mov	r2, #872415232	; 0x34000000
ffff9bb4:	e5832100 	str	r2, [r3, #256]	; 0x100
ffff9bb8:	e5940100 	ldr	r0, [r4, #256]	; 0x100
ffff9bbc:	e2105201 	ands	r5, r0, #268435456	; 0x10000000
ffff9bc0:	1afffffc 	bne	ffff9bb8 <hw_bit_leveling+0xa0>
ffff9bc4:	ebffff2b 	bl	ffff9878 <hw_bit_leveling_information>
ffff9bc8:	e3a03001 	mov	r3, #1
ffff9bcc:	e1a00005 	mov	r0, r5
ffff9bd0:	e58431b8 	str	r3, [r4, #440]	; 0x1b8
ffff9bd4:	e59431c0 	ldr	r3, [r4, #448]	; 0x1c0
ffff9bd8:	e3c33001 	bic	r3, r3, #1
ffff9bdc:	e58431c0 	str	r3, [r4, #448]	; 0x1c0
ffff9be0:	e59431ac 	ldr	r3, [r4, #428]	; 0x1ac
ffff9be4:	e3833001 	orr	r3, r3, #1
ffff9be8:	e58431ac 	str	r3, [r4, #428]	; 0x1ac
ffff9bec:	e8bd8070 	pop	{r4, r5, r6, pc}
ffff9bf0:	23091000 	.word	0x23091000
ffff9bf4:	ff00ff00 	.word	0xff00ff00
ffff9bf8:	30500000 	.word	0x30500000
ffff9bfc:	789b3de0 	.word	0x789b3de0
ffff9c00:	f10e4a56 	.word	0xf10e4a56

ffff9c04 <phy_set_init_values>:
ffff9c04:	e92d47f0 	push	{r4, r5, r6, r7, r8, r9, sl, lr}
ffff9c08:	e3a00003 	mov	r0, #3
ffff9c0c:	ed2d8b06 	vpush	{d8-d10}
ffff9c10:	e59f92c0 	ldr	r9, [pc, #704]	; ffff9ed8 <phy_set_init_values+0x2d4>
ffff9c14:	ebfffa58 	bl	ffff857c <get_pll_freq>
ffff9c18:	ee070a90 	vmov	s15, r0
ffff9c1c:	ed9f5ba9 	vldr	d5, [pc, #676]	; ffff9ec8 <phy_set_init_values+0x2c4>
ffff9c20:	e5993000 	ldr	r3, [r9]
ffff9c24:	e3a05000 	mov	r5, #0
ffff9c28:	eeb6ab00 	vmov.f64	d10, #96	; 0x60
ffff9c2c:	eeb86be7 	vcvt.f64.s32	d6, s15
ffff9c30:	e5d3606d 	ldrb	r6, [r3, #109]	; 0x6d
ffff9c34:	e5d3306c 	ldrb	r3, [r3, #108]	; 0x6c
ffff9c38:	e59f429c 	ldr	r4, [pc, #668]	; ffff9edc <phy_set_init_values+0x2d8>
ffff9c3c:	ee857b06 	vdiv.f64	d7, d5, d6
ffff9c40:	ee083a10 	vmov	s16, r3
ffff9c44:	ed9f6ba1 	vldr	d6, [pc, #644]	; ffff9ed0 <phy_set_init_values+0x2cc>
ffff9c48:	eeb88bc8 	vcvt.f64.s32	d8, s16
ffff9c4c:	ee288b0a 	vmul.f64	d8, d8, d10
ffff9c50:	eeb00b48 	vmov.f64	d0, d8
ffff9c54:	ee277b06 	vmul.f64	d7, d7, d6
ffff9c58:	eefd7bc7 	vcvt.s32.f64	s15, d7
ffff9c5c:	ee17aa90 	vmov	sl, s15
ffff9c60:	ebfff91c 	bl	ffff80d8 <round_up>
ffff9c64:	ee076a90 	vmov	s15, r6
ffff9c68:	e1a07000 	mov	r7, r0
ffff9c6c:	e2878008 	add	r8, r7, #8
ffff9c70:	eeb89be7 	vcvt.f64.s32	d9, s15
ffff9c74:	ee299b0a 	vmul.f64	d9, d9, d10
ffff9c78:	eeb00b49 	vmov.f64	d0, d9
ffff9c7c:	ebfff915 	bl	ffff80d8 <round_up>
ffff9c80:	e59431cc 	ldr	r3, [r4, #460]	; 0x1cc
ffff9c84:	e5992000 	ldr	r2, [r9]
ffff9c88:	e3c33401 	bic	r3, r3, #16777216	; 0x1000000
ffff9c8c:	e58431cc 	str	r3, [r4, #460]	; 0x1cc
ffff9c90:	e5d2308c 	ldrb	r3, [r2, #140]	; 0x8c
ffff9c94:	e5d2108e 	ldrb	r1, [r2, #142]	; 0x8e
ffff9c98:	e1a03803 	lsl	r3, r3, #16
ffff9c9c:	e1833201 	orr	r3, r3, r1, lsl #4
ffff9ca0:	e3a01006 	mov	r1, #6
ffff9ca4:	e5d2208d 	ldrb	r2, [r2, #141]	; 0x8d
ffff9ca8:	e3833b11 	orr	r3, r3, #17408	; 0x4400
ffff9cac:	eeb00b48 	vmov.f64	d0, d8
ffff9cb0:	e3833235 	orr	r3, r3, #1342177283	; 0x50000003
ffff9cb4:	e1833a02 	orr	r3, r3, r2, lsl #20
ffff9cb8:	e3a02005 	mov	r2, #5
ffff9cbc:	e5843120 	str	r3, [r4, #288]	; 0x120
ffff9cc0:	e59f3218 	ldr	r3, [pc, #536]	; ffff9ee0 <phy_set_init_values+0x2dc>
ffff9cc4:	e584512c 	str	r5, [r4, #300]	; 0x12c
ffff9cc8:	e58431c8 	str	r3, [r4, #456]	; 0x1c8
ffff9ccc:	e584112c 	str	r1, [r4, #300]	; 0x12c
ffff9cd0:	e58431c8 	str	r3, [r4, #456]	; 0x1c8
ffff9cd4:	e3a03001 	mov	r3, #1
ffff9cd8:	e5843170 	str	r3, [r4, #368]	; 0x170
ffff9cdc:	e3a0300a 	mov	r3, #10
ffff9ce0:	e5845168 	str	r5, [r4, #360]	; 0x168
ffff9ce4:	e5845164 	str	r5, [r4, #356]	; 0x164
ffff9ce8:	e584512c 	str	r5, [r4, #300]	; 0x12c
ffff9cec:	e5842130 	str	r2, [r4, #304]	; 0x130
ffff9cf0:	e5843138 	str	r3, [r4, #312]	; 0x138
ffff9cf4:	e584112c 	str	r1, [r4, #300]	; 0x12c
ffff9cf8:	e5842130 	str	r2, [r4, #304]	; 0x130
ffff9cfc:	e5843138 	str	r3, [r4, #312]	; 0x138
ffff9d00:	e59f31dc 	ldr	r3, [pc, #476]	; ffff9ee4 <phy_set_init_values+0x2e0>
ffff9d04:	e0488000 	sub	r8, r8, r0
ffff9d08:	e58431b4 	str	r3, [r4, #436]	; 0x1b4
ffff9d0c:	e3a0301a 	mov	r3, #26
ffff9d10:	e584515c 	str	r5, [r4, #348]	; 0x15c
ffff9d14:	e58431e8 	str	r3, [r4, #488]	; 0x1e8
ffff9d18:	e0877008 	add	r7, r7, r8
ffff9d1c:	ebfff8ed 	bl	ffff80d8 <round_up>
ffff9d20:	e59f31c0 	ldr	r3, [pc, #448]	; ffff9ee8 <phy_set_init_values+0x2e4>
ffff9d24:	eeb00b49 	vmov.f64	d0, d9
ffff9d28:	e1830200 	orr	r0, r3, r0, lsl #4
ffff9d2c:	e5840118 	str	r0, [r4, #280]	; 0x118
ffff9d30:	ebfff8e8 	bl	ffff80d8 <round_up>
ffff9d34:	e1e03006 	mvn	r3, r6
ffff9d38:	e2466005 	sub	r6, r6, #5
ffff9d3c:	e5992000 	ldr	r2, [r9]
ffff9d40:	e2033001 	and	r3, r3, #1
ffff9d44:	e1a03c03 	lsl	r3, r3, #24
ffff9d48:	e3833001 	orr	r3, r3, #1
ffff9d4c:	e1830400 	orr	r0, r3, r0, lsl #8
ffff9d50:	e584011c 	str	r0, [r4, #284]	; 0x11c
ffff9d54:	e594316c 	ldr	r3, [r4, #364]	; 0x16c
ffff9d58:	e3c33010 	bic	r3, r3, #16
ffff9d5c:	e584316c 	str	r3, [r4, #364]	; 0x16c
ffff9d60:	e2873015 	add	r3, r7, #21
ffff9d64:	e2887012 	add	r7, r8, #18
ffff9d68:	e1a07207 	lsl	r7, r7, #4
ffff9d6c:	e1877603 	orr	r7, r7, r3, lsl #12
ffff9d70:	e3a030f0 	mov	r3, #240	; 0xf0
ffff9d74:	e58471c0 	str	r7, [r4, #448]	; 0x1c0
ffff9d78:	e58451bc 	str	r5, [r4, #444]	; 0x1bc
ffff9d7c:	e58431e0 	str	r3, [r4, #480]	; 0x1e0
ffff9d80:	e1a03986 	lsl	r3, r6, #19
ffff9d84:	e1836186 	orr	r6, r3, r6, lsl #3
ffff9d88:	e5d23084 	ldrb	r3, [r2, #132]	; 0x84
ffff9d8c:	e1866c83 	orr	r6, r6, r3, lsl #25
ffff9d90:	e5846150 	str	r6, [r4, #336]	; 0x150
ffff9d94:	e5d26085 	ldrb	r6, [r2, #133]	; 0x85
ffff9d98:	e5d2e086 	ldrb	lr, [r2, #134]	; 0x86
ffff9d9c:	e1a03086 	lsl	r3, r6, #1
ffff9da0:	e1a0710e 	lsl	r7, lr, #2
ffff9da4:	e2033002 	and	r3, r3, #2
ffff9da8:	e1a0c0c6 	asr	ip, r6, #1
ffff9dac:	e2077004 	and	r7, r7, #4
ffff9db0:	e1833007 	orr	r3, r3, r7
ffff9db4:	e1a06886 	lsl	r6, r6, #17
ffff9db8:	e3833502 	orr	r3, r3, #8388608	; 0x800000
ffff9dbc:	e1a000ce 	asr	r0, lr, #1
ffff9dc0:	e2066802 	and	r6, r6, #131072	; 0x20000
ffff9dc4:	e1a0214e 	asr	r2, lr, #2
ffff9dc8:	e1a0e90e 	lsl	lr, lr, #18
ffff9dcc:	e1833006 	orr	r3, r3, r6
ffff9dd0:	e20ee701 	and	lr, lr, #262144	; 0x40000
ffff9dd4:	e183300e 	orr	r3, r3, lr
ffff9dd8:	e1a0e28c 	lsl	lr, ip, #5
ffff9ddc:	e1a0ca8c 	lsl	ip, ip, #21
ffff9de0:	e20ee020 	and	lr, lr, #32
ffff9de4:	e183300e 	orr	r3, r3, lr
ffff9de8:	e20cc602 	and	ip, ip, #2097152	; 0x200000
ffff9dec:	e1a0e300 	lsl	lr, r0, #6
ffff9df0:	e1a00b00 	lsl	r0, r0, #22
ffff9df4:	e20ee040 	and	lr, lr, #64	; 0x40
ffff9df8:	e183300e 	orr	r3, r3, lr
ffff9dfc:	e2000501 	and	r0, r0, #4194304	; 0x400000
ffff9e00:	e1a0e482 	lsl	lr, r2, #9
ffff9e04:	e1a02c82 	lsl	r2, r2, #25
ffff9e08:	e20eec06 	and	lr, lr, #1536	; 0x600
ffff9e0c:	e183300e 	orr	r3, r3, lr
ffff9e10:	e2022406 	and	r2, r2, #100663296	; 0x6000000
ffff9e14:	e183300c 	orr	r3, r3, ip
ffff9e18:	e1833000 	orr	r3, r3, r0
ffff9e1c:	e1833002 	orr	r3, r3, r2
ffff9e20:	e5843154 	str	r3, [r4, #340]	; 0x154
ffff9e24:	e3a03004 	mov	r3, #4
ffff9e28:	e713f31a 	sdiv	r3, sl, r3
ffff9e2c:	ee003a10 	vmov	s0, r3
ffff9e30:	eeb80bc0 	vcvt.f64.s32	d0, s0
ffff9e34:	ebfff8a7 	bl	ffff80d8 <round_up>
ffff9e38:	ee070a90 	vmov	s15, r0
ffff9e3c:	eeb80be7 	vcvt.f64.s32	d0, s15
ffff9e40:	eeb37b04 	vmov.f64	d7, #52	; 0x34
ffff9e44:	ee800b07 	vdiv.f64	d0, d0, d7
ffff9e48:	ebfff8a2 	bl	ffff80d8 <round_up>
ffff9e4c:	e1a06000 	mov	r6, r0
ffff9e50:	e1a02000 	mov	r2, r0
ffff9e54:	e59f0090 	ldr	r0, [pc, #144]	; ffff9eec <phy_set_init_values+0x2e8>
ffff9e58:	e1a0100a 	mov	r1, sl
ffff9e5c:	ebfffcf0 	bl	ffff9224 <printf>
ffff9e60:	e3863c02 	orr	r3, r6, #512	; 0x200
ffff9e64:	e386632a 	orr	r6, r6, #-1476395008	; 0xa8000000
ffff9e68:	e5843128 	str	r3, [r4, #296]	; 0x128
ffff9e6c:	e3866a01 	orr	r6, r6, #4096	; 0x1000
ffff9e70:	e584512c 	str	r5, [r4, #300]	; 0x12c
ffff9e74:	e3a03090 	mov	r3, #144	; 0x90
ffff9e78:	e58431a4 	str	r3, [r4, #420]	; 0x1a4
ffff9e7c:	e5846124 	str	r6, [r4, #292]	; 0x124
ffff9e80:	e5943128 	ldr	r3, [r4, #296]	; 0x128
ffff9e84:	e20334ff 	and	r3, r3, #-16777216	; 0xff000000
ffff9e88:	e35304ff 	cmp	r3, #-16777216	; 0xff000000
ffff9e8c:	0afffffb 	beq	ffff9e80 <phy_set_init_values+0x27c>
ffff9e90:	e5942170 	ldr	r2, [r4, #368]	; 0x170
ffff9e94:	e59f3040 	ldr	r3, [pc, #64]	; ffff9edc <phy_set_init_values+0x2d8>
ffff9e98:	e3120002 	tst	r2, #2
ffff9e9c:	e5932170 	ldr	r2, [r3, #368]	; 0x170
ffff9ea0:	0afffffc 	beq	ffff9e98 <phy_set_init_values+0x294>
ffff9ea4:	e3822004 	orr	r2, r2, #4
ffff9ea8:	e5832170 	str	r2, [r3, #368]	; 0x170
ffff9eac:	e5932170 	ldr	r2, [r3, #368]	; 0x170
ffff9eb0:	ecbd8b06 	vpop	{d8-d10}
ffff9eb4:	e3c22004 	bic	r2, r2, #4
ffff9eb8:	e5832170 	str	r2, [r3, #368]	; 0x170
ffff9ebc:	e3052076 	movw	r2, #20598	; 0x5076
ffff9ec0:	e583210c 	str	r2, [r3, #268]	; 0x10c
ffff9ec4:	e8bd87f0 	pop	{r4, r5, r6, r7, r8, r9, sl, pc}
ffff9ec8:	00000000 	.word	0x00000000
ffff9ecc:	41cdcd65 	.word	0x41cdcd65
ffff9ed0:	00000000 	.word	0x00000000
ffff9ed4:	408f4000 	.word	0x408f4000
ffff9ed8:	ffffd0e0 	.word	0xffffd0e0
ffff9edc:	23091000 	.word	0x23091000
ffff9ee0:	00200074 	.word	0x00200074
ffff9ee4:	09050002 	.word	0x09050002
ffff9ee8:	01000005 	.word	0x01000005
ffff9eec:	ffffb579 	.word	0xffffb579

ffff9ef0 <enter_self_refresh>:
ffff9ef0:	e92d4070 	push	{r4, r5, r6, lr}
ffff9ef4:	e3a01000 	mov	r1, #0
ffff9ef8:	e59f60e8 	ldr	r6, [pc, #232]	; ffff9fe8 <enter_self_refresh+0xf8>
ffff9efc:	e3a00080 	mov	r0, #128	; 0x80
ffff9f00:	e59f20e4 	ldr	r2, [pc, #228]	; ffff9fec <enter_self_refresh+0xfc>
ffff9f04:	e3a04000 	mov	r4, #0
ffff9f08:	e5963000 	ldr	r3, [r6]
ffff9f0c:	e7cf401f 	bfc	r4, #0, #16
ffff9f10:	e5d35073 	ldrb	r5, [r3, #115]	; 0x73
ffff9f14:	e7ca449f 	bfc	r4, #9, #2
ffff9f18:	e1a05225 	lsr	r5, r5, #4
ffff9f1c:	e7c7439f 	bfc	r4, #7, #1
ffff9f20:	e1a03005 	mov	r3, r5
ffff9f24:	e3844040 	orr	r4, r4, #64	; 0x40
ffff9f28:	ebfffd42 	bl	ffff9438 <host_cmd_load>
ffff9f2c:	e5963000 	ldr	r3, [r6]
ffff9f30:	e3a01000 	mov	r1, #0
ffff9f34:	e3a00084 	mov	r0, #132	; 0x84
ffff9f38:	e5d3306d 	ldrb	r3, [r3, #109]	; 0x6d
ffff9f3c:	e7c54193 	bfi	r4, r3, #3, #3
ffff9f40:	e1a03005 	mov	r3, r5
ffff9f44:	e6ff2074 	uxth	r2, r4
ffff9f48:	e7cf401f 	bfc	r4, #0, #16
ffff9f4c:	ebfffd22 	bl	ffff93dc <host_cmd_load_mr>
ffff9f50:	e5962000 	ldr	r2, [r6]
ffff9f54:	e3844001 	orr	r4, r4, #1
ffff9f58:	e7c4419f 	bfc	r4, #3, #2
ffff9f5c:	e3a01001 	mov	r1, #1
ffff9f60:	e5d23085 	ldrb	r3, [r2, #133]	; 0x85
ffff9f64:	e3a00088 	mov	r0, #136	; 0x88
ffff9f68:	e7c14093 	bfi	r4, r3, #1, #1
ffff9f6c:	e7e030d3 	ubfx	r3, r3, #1, #1
ffff9f70:	e7c54293 	bfi	r4, r3, #5, #1
ffff9f74:	e5d23086 	ldrb	r3, [r2, #134]	; 0x86
ffff9f78:	e7e020d3 	ubfx	r2, r3, #1, #1
ffff9f7c:	e7c24113 	bfi	r4, r3, #2, #1
ffff9f80:	e7c64312 	bfi	r4, r2, #6, #1
ffff9f84:	e30e2f7f 	movw	r2, #61311	; 0xef7f
ffff9f88:	e7e03153 	ubfx	r3, r3, #2, #1
ffff9f8c:	e7c94493 	bfi	r4, r3, #9, #1
ffff9f90:	e1a03005 	mov	r3, r5
ffff9f94:	e0022004 	and	r2, r2, r4
ffff9f98:	ebfffd0f 	bl	ffff93dc <host_cmd_load_mr>
ffff9f9c:	e5963000 	ldr	r3, [r6]
ffff9fa0:	e3a01000 	mov	r1, #0
ffff9fa4:	e59f2044 	ldr	r2, [pc, #68]	; ffff9ff0 <enter_self_refresh+0x100>
ffff9fa8:	e3a0008c 	mov	r0, #140	; 0x8c
ffff9fac:	e5d33076 	ldrb	r3, [r3, #118]	; 0x76
ffff9fb0:	e1a03083 	lsl	r3, r3, #1
ffff9fb4:	ebfffd1f 	bl	ffff9438 <host_cmd_load>
ffff9fb8:	e59f3034 	ldr	r3, [pc, #52]	; ffff9ff4 <enter_self_refresh+0x104>
ffff9fbc:	e3a02013 	mov	r2, #19
ffff9fc0:	e5832048 	str	r2, [r3, #72]	; 0x48
ffff9fc4:	e5932048 	ldr	r2, [r3, #72]	; 0x48
ffff9fc8:	e3120010 	tst	r2, #16
ffff9fcc:	1afffffc 	bne	ffff9fc4 <enter_self_refresh+0xd4>
ffff9fd0:	e59f2020 	ldr	r2, [pc, #32]	; ffff9ff8 <enter_self_refresh+0x108>
ffff9fd4:	e5923050 	ldr	r3, [r2, #80]	; 0x50
ffff9fd8:	e7e23653 	ubfx	r3, r3, #12, #3
ffff9fdc:	e3530005 	cmp	r3, #5
ffff9fe0:	1afffffb 	bne	ffff9fd4 <enter_self_refresh+0xe4>
ffff9fe4:	e8bd8070 	pop	{r4, r5, r6, pc}
ffff9fe8:	ffffd0e0 	.word	0xffffd0e0
ffff9fec:	005ff401 	.word	0x005ff401
ffff9ff0:	00801800 	.word	0x00801800
ffff9ff4:	23090000 	.word	0x23090000
ffff9ff8:	23091000 	.word	0x23091000

ffff9ffc <exit_self_refresh>:
ffff9ffc:	e92d4070 	push	{r4, r5, r6, lr}
ffffa000:	e3a01000 	mov	r1, #0
ffffa004:	e59f60c8 	ldr	r6, [pc, #200]	; ffffa0d4 <exit_self_refresh+0xd8>
ffffa008:	e3a00080 	mov	r0, #128	; 0x80
ffffa00c:	e59f20c4 	ldr	r2, [pc, #196]	; ffffa0d8 <exit_self_refresh+0xdc>
ffffa010:	e3a04000 	mov	r4, #0
ffffa014:	e5963000 	ldr	r3, [r6]
ffffa018:	e7cf401f 	bfc	r4, #0, #16
ffffa01c:	e5d35074 	ldrb	r5, [r3, #116]	; 0x74
ffffa020:	e3844001 	orr	r4, r4, #1
ffffa024:	e7c4419f 	bfc	r4, #3, #2
ffffa028:	e1a03005 	mov	r3, r5
ffffa02c:	ebfffd01 	bl	ffff9438 <host_cmd_load>
ffffa030:	e5962000 	ldr	r2, [r6]
ffffa034:	e3a01001 	mov	r1, #1
ffffa038:	e3a00084 	mov	r0, #132	; 0x84
ffffa03c:	e5d23085 	ldrb	r3, [r2, #133]	; 0x85
ffffa040:	e7c14093 	bfi	r4, r3, #1, #1
ffffa044:	e7e030d3 	ubfx	r3, r3, #1, #1
ffffa048:	e7c54293 	bfi	r4, r3, #5, #1
ffffa04c:	e5d23086 	ldrb	r3, [r2, #134]	; 0x86
ffffa050:	e7e020d3 	ubfx	r2, r3, #1, #1
ffffa054:	e7c24113 	bfi	r4, r3, #2, #1
ffffa058:	e7c64312 	bfi	r4, r2, #6, #1
ffffa05c:	e7e03153 	ubfx	r3, r3, #2, #1
ffffa060:	e7c94493 	bfi	r4, r3, #9, #1
ffffa064:	e1a03005 	mov	r3, r5
ffffa068:	e7cc461f 	bfc	r4, #12, #1
ffffa06c:	e7c7439f 	bfc	r4, #7, #1
ffffa070:	e6ff2074 	uxth	r2, r4
ffffa074:	e7cf401f 	bfc	r4, #0, #16
ffffa078:	ebfffcd7 	bl	ffff93dc <host_cmd_load_mr>
ffffa07c:	e5963000 	ldr	r3, [r6]
ffffa080:	e3a01002 	mov	r1, #2
ffffa084:	e7ca449f 	bfc	r4, #9, #2
ffffa088:	e3a00088 	mov	r0, #136	; 0x88
ffffa08c:	e5d3306d 	ldrb	r3, [r3, #109]	; 0x6d
ffffa090:	e7c7439f 	bfc	r4, #7, #1
ffffa094:	e3844040 	orr	r4, r4, #64	; 0x40
ffffa098:	e7c54193 	bfi	r4, r3, #3, #3
ffffa09c:	e1a03005 	mov	r3, r5
ffffa0a0:	e6ff2074 	uxth	r2, r4
ffffa0a4:	ebfffccc 	bl	ffff93dc <host_cmd_load_mr>
ffffa0a8:	e59f202c 	ldr	r2, [pc, #44]	; ffffa0dc <exit_self_refresh+0xe0>
ffffa0ac:	e1a03005 	mov	r3, r5
ffffa0b0:	e3a01000 	mov	r1, #0
ffffa0b4:	e3a00080 	mov	r0, #128	; 0x80
ffffa0b8:	ebfffcde 	bl	ffff9438 <host_cmd_load>
ffffa0bc:	e59f201c 	ldr	r2, [pc, #28]	; ffffa0e0 <exit_self_refresh+0xe4>
ffffa0c0:	e5923050 	ldr	r3, [r2, #80]	; 0x50
ffffa0c4:	e7e23653 	ubfx	r3, r3, #12, #3
ffffa0c8:	e3530002 	cmp	r3, #2
ffffa0cc:	1afffffb 	bne	ffffa0c0 <exit_self_refresh+0xc4>
ffffa0d0:	e8bd8070 	pop	{r4, r5, r6, pc}
ffffa0d4:	ffffd0e0 	.word	0xffffd0e0
ffffa0d8:	005ff401 	.word	0x005ff401
ffffa0dc:	00fffe00 	.word	0x00fffe00
ffffa0e0:	23091000 	.word	0x23091000

ffffa0e4 <mem_init_seq_ddr3>:
ffffa0e4:	e92d47f0 	push	{r4, r5, r6, r7, r8, r9, sl, lr}
ffffa0e8:	e3a01000 	mov	r1, #0
ffffa0ec:	e59f61fc 	ldr	r6, [pc, #508]	; ffffa2f0 <mem_init_seq_ddr3+0x20c>
ffffa0f0:	e3a00080 	mov	r0, #128	; 0x80
ffffa0f4:	e59f51f8 	ldr	r5, [pc, #504]	; ffffa2f4 <mem_init_seq_ddr3+0x210>
ffffa0f8:	e5963000 	ldr	r3, [r6]
ffffa0fc:	e59f21f4 	ldr	r2, [pc, #500]	; ffffa2f8 <mem_init_seq_ddr3+0x214>
ffffa100:	e5d3706f 	ldrb	r7, [r3, #111]	; 0x6f
ffffa104:	e5d3906c 	ldrb	r9, [r3, #108]	; 0x6c
ffffa108:	e5d3a06d 	ldrb	sl, [r3, #109]	; 0x6d
ffffa10c:	e3a03001 	mov	r3, #1
ffffa110:	e5853010 	str	r3, [r5, #16]
ffffa114:	e207700f 	and	r7, r7, #15
ffffa118:	e5953050 	ldr	r3, [r5, #80]	; 0x50
ffffa11c:	e1a08087 	lsl	r8, r7, #1
ffffa120:	e3c33010 	bic	r3, r3, #16
ffffa124:	e5853050 	str	r3, [r5, #80]	; 0x50
ffffa128:	e3a03005 	mov	r3, #5
ffffa12c:	ebfffcc1 	bl	ffff9438 <host_cmd_load>
ffffa130:	e59f21c0 	ldr	r2, [pc, #448]	; ffffa2f8 <mem_init_seq_ddr3+0x214>
ffffa134:	e3a03000 	mov	r3, #0
ffffa138:	e1a01003 	mov	r1, r3
ffffa13c:	e3a00084 	mov	r0, #132	; 0x84
ffffa140:	ebfffcbc 	bl	ffff9438 <host_cmd_load>
ffffa144:	e3a03011 	mov	r3, #17
ffffa148:	e5853048 	str	r3, [r5, #72]	; 0x48
ffffa14c:	e5954048 	ldr	r4, [r5, #72]	; 0x48
ffffa150:	e2144010 	ands	r4, r4, #16
ffffa154:	1afffffc 	bne	ffffa14c <mem_init_seq_ddr3+0x68>
ffffa158:	e3a000c8 	mov	r0, #200	; 0xc8
ffffa15c:	e24aa005 	sub	sl, sl, #5
ffffa160:	ebfff8b8 	bl	ffff8448 <udelay>
ffffa164:	e5953050 	ldr	r3, [r5, #80]	; 0x50
ffffa168:	e3a00f7d 	mov	r0, #500	; 0x1f4
ffffa16c:	e3833012 	orr	r3, r3, #18
ffffa170:	e5853050 	str	r3, [r5, #80]	; 0x50
ffffa174:	ebfff8b3 	bl	ffff8448 <udelay>
ffffa178:	e5963000 	ldr	r3, [r6]
ffffa17c:	e1a01004 	mov	r1, r4
ffffa180:	e3e024ff 	mvn	r2, #-16777216	; 0xff000000
ffffa184:	e3a00080 	mov	r0, #128	; 0x80
ffffa188:	e5d33066 	ldrb	r3, [r3, #102]	; 0x66
ffffa18c:	e283300a 	add	r3, r3, #10
ffffa190:	ebfffca8 	bl	ffff9438 <host_cmd_load>
ffffa194:	e5963000 	ldr	r3, [r6]
ffffa198:	e3a02000 	mov	r2, #0
ffffa19c:	e7cf2014 	bfi	r2, r4, #0, #16
ffffa1a0:	e3a01002 	mov	r1, #2
ffffa1a4:	e5d35072 	ldrb	r5, [r3, #114]	; 0x72
ffffa1a8:	e3a00084 	mov	r0, #132	; 0x84
ffffa1ac:	e5d33084 	ldrb	r3, [r3, #132]	; 0x84
ffffa1b0:	e205500f 	and	r5, r5, #15
ffffa1b4:	e7ca2493 	bfi	r2, r3, #9, #2
ffffa1b8:	e1a05085 	lsl	r5, r5, #1
ffffa1bc:	e7c5219a 	bfi	r2, sl, #3, #3
ffffa1c0:	e1a03005 	mov	r3, r5
ffffa1c4:	e6ff2072 	uxth	r2, r2
ffffa1c8:	ebfffc83 	bl	ffff93dc <host_cmd_load_mr>
ffffa1cc:	e1a02004 	mov	r2, r4
ffffa1d0:	e1a03005 	mov	r3, r5
ffffa1d4:	e3a01003 	mov	r1, #3
ffffa1d8:	e3a00088 	mov	r0, #136	; 0x88
ffffa1dc:	ebfffc7e 	bl	ffff93dc <host_cmd_load_mr>
ffffa1e0:	e5961000 	ldr	r1, [r6]
ffffa1e4:	e3a02000 	mov	r2, #0
ffffa1e8:	e7cf2014 	bfi	r2, r4, #0, #16
ffffa1ec:	e5d13086 	ldrb	r3, [r1, #134]	; 0x86
ffffa1f0:	e7e000d3 	ubfx	r0, r3, #1, #1
ffffa1f4:	e7c22113 	bfi	r2, r3, #2, #1
ffffa1f8:	e7c62310 	bfi	r2, r0, #6, #1
ffffa1fc:	e3a0008c 	mov	r0, #140	; 0x8c
ffffa200:	e7e03153 	ubfx	r3, r3, #2, #1
ffffa204:	e7c92493 	bfi	r2, r3, #9, #1
ffffa208:	e5d13085 	ldrb	r3, [r1, #133]	; 0x85
ffffa20c:	e3a01001 	mov	r1, #1
ffffa210:	e7c12093 	bfi	r2, r3, #1, #1
ffffa214:	e7e030d3 	ubfx	r3, r3, #1, #1
ffffa218:	e7c52293 	bfi	r2, r3, #5, #1
ffffa21c:	e1a03005 	mov	r3, r5
ffffa220:	e6ff2072 	uxth	r2, r2
ffffa224:	ebfffc6c 	bl	ffff93dc <host_cmd_load_mr>
ffffa228:	e2493005 	sub	r3, r9, #5
ffffa22c:	e3530006 	cmp	r3, #6
ffffa230:	92494004 	subls	r4, r9, #4
ffffa234:	91a04084 	lslls	r4, r4, #1
ffffa238:	9a000003 	bls	ffffa24c <mem_init_seq_ddr3+0x168>
ffffa23c:	e249900c 	sub	r9, r9, #12
ffffa240:	e3590004 	cmp	r9, #4
ffffa244:	91a04089 	lslls	r4, r9, #1
ffffa248:	92844001 	addls	r4, r4, #1
ffffa24c:	e2483005 	sub	r3, r8, #5
ffffa250:	e3530003 	cmp	r3, #3
ffffa254:	92487004 	subls	r7, r8, #4
ffffa258:	9a000002 	bls	ffffa268 <mem_init_seq_ddr3+0x184>
ffffa25c:	e248800a 	sub	r8, r8, #10
ffffa260:	e3580005 	cmp	r8, #5
ffffa264:	23a07000 	movcs	r7, #0
ffffa268:	e3a02000 	mov	r2, #0
ffffa26c:	e3a03006 	mov	r3, #6
ffffa270:	e7cf201f 	bfc	r2, #0, #16
ffffa274:	e3a01000 	mov	r1, #0
ffffa278:	e3822a01 	orr	r2, r2, #4096	; 0x1000
ffffa27c:	e3a00090 	mov	r0, #144	; 0x90
ffffa280:	e7cb2497 	bfi	r2, r7, #9, #3
ffffa284:	e3822c01 	orr	r2, r2, #256	; 0x100
ffffa288:	e7c22114 	bfi	r2, r4, #2, #1
ffffa28c:	e7e240d4 	ubfx	r4, r4, #1, #3
ffffa290:	e7c62214 	bfi	r2, r4, #4, #3
ffffa294:	e6ff2072 	uxth	r2, r2
ffffa298:	ebfffc4f 	bl	ffff93dc <host_cmd_load_mr>
ffffa29c:	e5963000 	ldr	r3, [r6]
ffffa2a0:	e3a01004 	mov	r1, #4
ffffa2a4:	e59f2050 	ldr	r2, [pc, #80]	; ffffa2fc <mem_init_seq_ddr3+0x218>
ffffa2a8:	e3a00094 	mov	r0, #148	; 0x94
ffffa2ac:	e1d337be 	ldrh	r3, [r3, #126]	; 0x7e
ffffa2b0:	e7e93253 	ubfx	r3, r3, #4, #10
ffffa2b4:	ebfffc5f 	bl	ffff9438 <host_cmd_load>
ffffa2b8:	e59f3034 	ldr	r3, [pc, #52]	; ffffa2f4 <mem_init_seq_ddr3+0x210>
ffffa2bc:	e3a02015 	mov	r2, #21
ffffa2c0:	e5832048 	str	r2, [r3, #72]	; 0x48
ffffa2c4:	e5932048 	ldr	r2, [r3, #72]	; 0x48
ffffa2c8:	e3120010 	tst	r2, #16
ffffa2cc:	1afffffc 	bne	ffffa2c4 <mem_init_seq_ddr3+0x1e0>
ffffa2d0:	e3a02003 	mov	r2, #3
ffffa2d4:	e5832010 	str	r2, [r3, #16]
ffffa2d8:	e59f2020 	ldr	r2, [pc, #32]	; ffffa300 <mem_init_seq_ddr3+0x21c>
ffffa2dc:	e5923160 	ldr	r3, [r2, #352]	; 0x160
ffffa2e0:	e2033003 	and	r3, r3, #3
ffffa2e4:	e3530003 	cmp	r3, #3
ffffa2e8:	1afffffb 	bne	ffffa2dc <mem_init_seq_ddr3+0x1f8>
ffffa2ec:	e8bd87f0 	pop	{r4, r5, r6, r7, r8, r9, sl, pc}
ffffa2f0:	ffffd0e0 	.word	0xffffd0e0
ffffa2f4:	23090000 	.word	0x23090000
ffffa2f8:	00ffeffe 	.word	0x00ffeffe
ffffa2fc:	00fff601 	.word	0x00fff601
ffffa300:	23091000 	.word	0x23091000

ffffa304 <ddr3_initialize>:
ffffa304:	e92d4010 	push	{r4, lr}
ffffa308:	e1a04000 	mov	r4, r0
ffffa30c:	ebfffe3c 	bl	ffff9c04 <phy_set_init_values>
ffffa310:	ebfffc53 	bl	ffff9464 <ctrl_set_init_values>
ffffa314:	e1a00004 	mov	r0, r4
ffffa318:	ebffff71 	bl	ffffa0e4 <mem_init_seq_ddr3>
ffffa31c:	ebfffd35 	bl	ffff97f8 <hw_write_leveling>
ffffa320:	ebfffdfc 	bl	ffff9b18 <hw_bit_leveling>
ffffa324:	e3a00000 	mov	r0, #0
ffffa328:	e8bd8010 	pop	{r4, pc}

ffffa32c <efuse_get_bootcfg>:
ffffa32c:	e59f3004 	ldr	r3, [pc, #4]	; ffffa338 <efuse_get_bootcfg+0xc>
ffffa330:	e5930200 	ldr	r0, [r3, #512]	; 0x200
ffffa334:	e12fff1e 	bx	lr
ffffa338:	20070000 	.word	0x20070000

ffffa33c <efuse_get_ecid>:
ffffa33c:	e59f3008 	ldr	r3, [pc, #8]	; ffffa34c <efuse_get_ecid+0x10>
ffffa340:	e2800040 	add	r0, r0, #64	; 0x40
ffffa344:	e7930100 	ldr	r0, [r3, r0, lsl #2]
ffffa348:	e12fff1e 	bx	lr
ffffa34c:	20070000 	.word	0x20070000

ffffa350 <memory_initialize>:
ffffa350:	e92d4070 	push	{r4, r5, r6, lr}
ffffa354:	e1a05000 	mov	r5, r0
ffffa358:	ebffffe9 	bl	ffffa304 <ddr3_initialize>
ffffa35c:	e59f10a0 	ldr	r1, [pc, #160]	; ffffa404 <memory_initialize+0xb4>
ffffa360:	e1a04000 	mov	r4, r0
ffffa364:	e1a02000 	mov	r2, r0
ffffa368:	e3540000 	cmp	r4, #0
ffffa36c:	e59f0094 	ldr	r0, [pc, #148]	; ffffa408 <memory_initialize+0xb8>
ffffa370:	e1a03005 	mov	r3, r5
ffffa374:	a1a01000 	movge	r1, r0
ffffa378:	e59f008c 	ldr	r0, [pc, #140]	; ffffa40c <memory_initialize+0xbc>
ffffa37c:	ebfffba8 	bl	ffff9224 <printf>
ffffa380:	e3540000 	cmp	r4, #0
ffffa384:	a3e04000 	mvnge	r4, #0
ffffa388:	aa00001b 	bge	ffffa3fc <memory_initialize+0xac>
ffffa38c:	e59f307c 	ldr	r3, [pc, #124]	; ffffa410 <memory_initialize+0xc0>
ffffa390:	e3a01001 	mov	r1, #1
ffffa394:	e59f2078 	ldr	r2, [pc, #120]	; ffffa414 <memory_initialize+0xc4>
ffffa398:	e3a05008 	mov	r5, #8
ffffa39c:	e5930000 	ldr	r0, [r3]
ffffa3a0:	e5d0305e 	ldrb	r3, [r0, #94]	; 0x5e
ffffa3a4:	e5d0c05d 	ldrb	ip, [r0, #93]	; 0x5d
ffffa3a8:	e5c23002 	strb	r3, [r2, #2]
ffffa3ac:	e1a03311 	lsl	r3, r1, r3
ffffa3b0:	e1a01c11 	lsl	r1, r1, ip
ffffa3b4:	e713f513 	sdiv	r3, r3, r5
ffffa3b8:	e5821008 	str	r1, [r2, #8]
ffffa3bc:	e5d0105c 	ldrb	r1, [r0, #92]	; 0x5c
ffffa3c0:	e5c2c001 	strb	ip, [r2, #1]
ffffa3c4:	e5823004 	str	r3, [r2, #4]
ffffa3c8:	e1a01281 	lsl	r1, r1, #5
ffffa3cc:	e1a03c13 	lsl	r3, r3, ip
ffffa3d0:	e5d0c061 	ldrb	ip, [r0, #97]	; 0x61
ffffa3d4:	e5d0e05f 	ldrb	lr, [r0, #95]	; 0x5f
ffffa3d8:	e711fc11 	sdiv	r1, r1, ip
ffffa3dc:	e582300c 	str	r3, [r2, #12]
ffffa3e0:	e1a03e13 	lsl	r3, r3, lr
ffffa3e4:	e003039c 	mul	r3, ip, r3
ffffa3e8:	e5c2e000 	strb	lr, [r2]
ffffa3ec:	e1a03a23 	lsr	r3, r3, #20
ffffa3f0:	e5823010 	str	r3, [r2, #16]
ffffa3f4:	e0030193 	mul	r3, r3, r1
ffffa3f8:	e5823014 	str	r3, [r2, #20]
ffffa3fc:	e1a00004 	mov	r0, r4
ffffa400:	e8bd8070 	pop	{r4, r5, r6, pc}
ffffa404:	ffffb5ad 	.word	0xffffb5ad
ffffa408:	ffffb5a8 	.word	0xffffb5a8
ffffa40c:	ffffb5b4 	.word	0xffffb5b4
ffffa410:	ffffd0e0 	.word	0xffffd0e0
ffffa414:	ffffd0fc 	.word	0xffffd0fc

ffffa418 <pmu_blk_pwrup>:
ffffa418:	e1a01000 	mov	r1, r0
ffffa41c:	e3a03000 	mov	r3, #0
ffffa420:	e59f0004 	ldr	r0, [pc, #4]	; ffffa42c <pmu_blk_pwrup+0x14>
ffffa424:	e3a02001 	mov	r2, #1
ffffa428:	ea0002dc 	b	ffffafa0 <smc_call>
ffffa42c:	82000003 	.word	0x82000003

ffffa430 <pmu_initialize>:
ffffa430:	e92d4010 	push	{r4, lr}
ffffa434:	e3a00000 	mov	r0, #0
ffffa438:	ebfffff6 	bl	ffffa418 <pmu_blk_pwrup>
ffffa43c:	e3a00000 	mov	r0, #0
ffffa440:	e8bd4010 	pop	{r4, lr}
ffffa444:	eafffff3 	b	ffffa418 <pmu_blk_pwrup>

ffffa448 <gpio_set_outenb>:
ffffa448:	e2000007 	and	r0, r0, #7
ffffa44c:	e3a03001 	mov	r3, #1
ffffa450:	e3520000 	cmp	r2, #0
ffffa454:	e1a00800 	lsl	r0, r0, #16
ffffa458:	e1a01113 	lsl	r1, r3, r1
ffffa45c:	e2800202 	add	r0, r0, #536870912	; 0x20000000
ffffa460:	e2800706 	add	r0, r0, #1572864	; 0x180000
ffffa464:	e5902004 	ldr	r2, [r0, #4]
ffffa468:	11823001 	orrne	r3, r2, r1
ffffa46c:	01c23001 	biceq	r3, r2, r1
ffffa470:	15803004 	strne	r3, [r0, #4]
ffffa474:	05803004 	streq	r3, [r0, #4]
ffffa478:	15903074 	ldrne	r3, [r0, #116]	; 0x74
ffffa47c:	05903074 	ldreq	r3, [r0, #116]	; 0x74
ffffa480:	11c31001 	bicne	r1, r3, r1
ffffa484:	01811003 	orreq	r1, r1, r3
ffffa488:	e5801074 	str	r1, [r0, #116]	; 0x74
ffffa48c:	e12fff1e 	bx	lr

ffffa490 <gpio_set_output>:
ffffa490:	e2000007 	and	r0, r0, #7
ffffa494:	e3520000 	cmp	r2, #0
ffffa498:	e3a02001 	mov	r2, #1
ffffa49c:	e1a00800 	lsl	r0, r0, #16
ffffa4a0:	e2800202 	add	r0, r0, #536870912	; 0x20000000
ffffa4a4:	e2800706 	add	r0, r0, #1572864	; 0x180000
ffffa4a8:	e5903000 	ldr	r3, [r0]
ffffa4ac:	11831112 	orrne	r1, r3, r2, lsl r1
ffffa4b0:	01c31112 	biceq	r1, r3, r2, lsl r1
ffffa4b4:	e5801000 	str	r1, [r0]
ffffa4b8:	e12fff1e 	bx	lr

ffffa4bc <gpio_get_pad>:
ffffa4bc:	e2000007 	and	r0, r0, #7
ffffa4c0:	e1a00800 	lsl	r0, r0, #16
ffffa4c4:	e2800202 	add	r0, r0, #536870912	; 0x20000000
ffffa4c8:	e2800706 	add	r0, r0, #1572864	; 0x180000
ffffa4cc:	e5900018 	ldr	r0, [r0, #24]
ffffa4d0:	e1a00130 	lsr	r0, r0, r1
ffffa4d4:	e2000001 	and	r0, r0, #1
ffffa4d8:	e12fff1e 	bx	lr

ffffa4dc <gpio_set_pullenb>:
ffffa4dc:	e1a00800 	lsl	r0, r0, #16
ffffa4e0:	e3a03001 	mov	r3, #1
ffffa4e4:	e2800202 	add	r0, r0, #536870912	; 0x20000000
ffffa4e8:	e3520000 	cmp	r2, #0
ffffa4ec:	11a01113 	lslne	r1, r3, r1
ffffa4f0:	e2800706 	add	r0, r0, #1572864	; 0x180000
ffffa4f4:	01e01113 	mvneq	r1, r3, lsl r1
ffffa4f8:	e5902060 	ldr	r2, [r0, #96]	; 0x60
ffffa4fc:	11823001 	orrne	r3, r2, r1
ffffa500:	00023001 	andeq	r3, r2, r1
ffffa504:	15803060 	strne	r3, [r0, #96]	; 0x60
ffffa508:	05803060 	streq	r3, [r0, #96]	; 0x60
ffffa50c:	15903064 	ldrne	r3, [r0, #100]	; 0x64
ffffa510:	05903064 	ldreq	r3, [r0, #100]	; 0x64
ffffa514:	11811003 	orrne	r1, r1, r3
ffffa518:	00011003 	andeq	r1, r1, r3
ffffa51c:	e5801064 	str	r1, [r0, #100]	; 0x64
ffffa520:	e12fff1e 	bx	lr

ffffa524 <gpio_set_pull>:
ffffa524:	e2000007 	and	r0, r0, #7
ffffa528:	e3a03001 	mov	r3, #1
ffffa52c:	e3520000 	cmp	r2, #0
ffffa530:	e1a00800 	lsl	r0, r0, #16
ffffa534:	11a01113 	lslne	r1, r3, r1
ffffa538:	e2800202 	add	r0, r0, #536870912	; 0x20000000
ffffa53c:	01e01113 	mvneq	r1, r3, lsl r1
ffffa540:	e2800706 	add	r0, r0, #1572864	; 0x180000
ffffa544:	e5902058 	ldr	r2, [r0, #88]	; 0x58
ffffa548:	11823001 	orrne	r3, r2, r1
ffffa54c:	00023001 	andeq	r3, r2, r1
ffffa550:	15803058 	strne	r3, [r0, #88]	; 0x58
ffffa554:	05803058 	streq	r3, [r0, #88]	; 0x58
ffffa558:	1590305c 	ldrne	r3, [r0, #92]	; 0x5c
ffffa55c:	0590305c 	ldreq	r3, [r0, #92]	; 0x5c
ffffa560:	11811003 	orrne	r1, r1, r3
ffffa564:	00011003 	andeq	r1, r1, r3
ffffa568:	e580105c 	str	r1, [r0, #92]	; 0x5c
ffffa56c:	e12fff1e 	bx	lr

ffffa570 <gpio_set_alt_function>:
ffffa570:	e2000007 	and	r0, r0, #7
ffffa574:	e3a0c003 	mov	ip, #3
ffffa578:	e92d4070 	push	{r4, r5, r6, lr}
ffffa57c:	e201500f 	and	r5, r1, #15
ffffa580:	e1a00800 	lsl	r0, r0, #16
ffffa584:	e3a06001 	mov	r6, #1
ffffa588:	e1a0e241 	asr	lr, r1, #4
ffffa58c:	e2800202 	add	r0, r0, #536870912	; 0x20000000
ffffa590:	e1a04085 	lsl	r4, r5, #1
ffffa594:	e2800706 	add	r0, r0, #1572864	; 0x180000
ffffa598:	e080e10e 	add	lr, r0, lr, lsl #2
ffffa59c:	e59e3020 	ldr	r3, [lr, #32]
ffffa5a0:	e1c3341c 	bic	r3, r3, ip, lsl r4
ffffa5a4:	e590c07c 	ldr	ip, [r0, #124]	; 0x7c
ffffa5a8:	e1ccc516 	bic	ip, ip, r6, lsl r5
ffffa5ac:	e7e05152 	ubfx	r5, r2, #2, #1
ffffa5b0:	e2022003 	and	r2, r2, #3
ffffa5b4:	e18c1115 	orr	r1, ip, r5, lsl r1
ffffa5b8:	e1832412 	orr	r2, r3, r2, lsl r4
ffffa5bc:	e580107c 	str	r1, [r0, #124]	; 0x7c
ffffa5c0:	e58e2020 	str	r2, [lr, #32]
ffffa5c4:	e8bd8070 	pop	{r4, r5, r6, pc}

ffffa5c8 <nx_gpio_set_alt>:
ffffa5c8:	e5d01000 	ldrb	r1, [r0]
ffffa5cc:	e5d00001 	ldrb	r0, [r0, #1]
ffffa5d0:	e2012007 	and	r2, r1, #7
ffffa5d4:	e1a011a1 	lsr	r1, r1, #3
ffffa5d8:	eaffffe4 	b	ffffa570 <gpio_set_alt_function>

ffffa5dc <sda_low>:
ffffa5dc:	e59f300c 	ldr	r3, [pc, #12]	; ffffa5f0 <sda_low+0x14>
ffffa5e0:	e3a02001 	mov	r2, #1
ffffa5e4:	e5d31000 	ldrb	r1, [r3]
ffffa5e8:	e5d30001 	ldrb	r0, [r3, #1]
ffffa5ec:	eaffff95 	b	ffffa448 <gpio_set_outenb>
ffffa5f0:	ffffd0f0 	.word	0xffffd0f0

ffffa5f4 <scl_low>:
ffffa5f4:	e59f300c 	ldr	r3, [pc, #12]	; ffffa608 <scl_low+0x14>
ffffa5f8:	e3a02001 	mov	r2, #1
ffffa5fc:	e5d31002 	ldrb	r1, [r3, #2]
ffffa600:	e5d30001 	ldrb	r0, [r3, #1]
ffffa604:	eaffff8f 	b	ffffa448 <gpio_set_outenb>
ffffa608:	ffffd0f0 	.word	0xffffd0f0

ffffa60c <scl_read>:
ffffa60c:	e92d4010 	push	{r4, lr}
ffffa610:	e3a02000 	mov	r2, #0
ffffa614:	e59f4018 	ldr	r4, [pc, #24]	; ffffa634 <scl_read+0x28>
ffffa618:	e5d41002 	ldrb	r1, [r4, #2]
ffffa61c:	e5d40001 	ldrb	r0, [r4, #1]
ffffa620:	ebffff88 	bl	ffffa448 <gpio_set_outenb>
ffffa624:	e5d41002 	ldrb	r1, [r4, #2]
ffffa628:	e5d40001 	ldrb	r0, [r4, #1]
ffffa62c:	e8bd4010 	pop	{r4, lr}
ffffa630:	eaffffa1 	b	ffffa4bc <gpio_get_pad>
ffffa634:	ffffd0f0 	.word	0xffffd0f0

ffffa638 <sda_read>:
ffffa638:	e92d4010 	push	{r4, lr}
ffffa63c:	e3a02000 	mov	r2, #0
ffffa640:	e59f4018 	ldr	r4, [pc, #24]	; ffffa660 <sda_read+0x28>
ffffa644:	e5d41000 	ldrb	r1, [r4]
ffffa648:	e5d40001 	ldrb	r0, [r4, #1]
ffffa64c:	ebffff7d 	bl	ffffa448 <gpio_set_outenb>
ffffa650:	e5d41000 	ldrb	r1, [r4]
ffffa654:	e5d40001 	ldrb	r0, [r4, #1]
ffffa658:	e8bd4010 	pop	{r4, lr}
ffffa65c:	eaffff96 	b	ffffa4bc <gpio_get_pad>
ffffa660:	ffffd0f0 	.word	0xffffd0f0

ffffa664 <i2c_delay.constprop.4>:
ffffa664:	e24dd008 	sub	sp, sp, #8
ffffa668:	e3a03000 	mov	r3, #0
ffffa66c:	e58d3000 	str	r3, [sp]
ffffa670:	e58d3004 	str	r3, [sp, #4]
ffffa674:	e58d3000 	str	r3, [sp]
ffffa678:	e59d2000 	ldr	r2, [sp]
ffffa67c:	e3520001 	cmp	r2, #1
ffffa680:	9a000001 	bls	ffffa68c <i2c_delay.constprop.4+0x28>
ffffa684:	e28dd008 	add	sp, sp, #8
ffffa688:	e12fff1e 	bx	lr
ffffa68c:	e58d3004 	str	r3, [sp, #4]
ffffa690:	e59d2004 	ldr	r2, [sp, #4]
ffffa694:	e3520001 	cmp	r2, #1
ffffa698:	859d2000 	ldrhi	r2, [sp]
ffffa69c:	82822001 	addhi	r2, r2, #1
ffffa6a0:	858d2000 	strhi	r2, [sp]
ffffa6a4:	8afffff3 	bhi	ffffa678 <i2c_delay.constprop.4+0x14>
ffffa6a8:	e59d2004 	ldr	r2, [sp, #4]
ffffa6ac:	e2822001 	add	r2, r2, #1
ffffa6b0:	e58d2004 	str	r2, [sp, #4]
ffffa6b4:	eafffff5 	b	ffffa690 <i2c_delay.constprop.4+0x2c>

ffffa6b8 <i2c_gpio_send_stop>:
ffffa6b8:	e92d4070 	push	{r4, r5, r6, lr}
ffffa6bc:	e3a05065 	mov	r5, #101	; 0x65
ffffa6c0:	ebffffc5 	bl	ffffa5dc <sda_low>
ffffa6c4:	ebffffe6 	bl	ffffa664 <i2c_delay.constprop.4>
ffffa6c8:	ebffffcf 	bl	ffffa60c <scl_read>
ffffa6cc:	e2504000 	subs	r4, r0, #0
ffffa6d0:	0a00000b 	beq	ffffa704 <i2c_gpio_send_stop+0x4c>
ffffa6d4:	e3a05065 	mov	r5, #101	; 0x65
ffffa6d8:	ebffffe1 	bl	ffffa664 <i2c_delay.constprop.4>
ffffa6dc:	ebffffd5 	bl	ffffa638 <sda_read>
ffffa6e0:	e59f3050 	ldr	r3, [pc, #80]	; ffffa738 <i2c_gpio_send_stop+0x80>
ffffa6e4:	e3a02000 	mov	r2, #0
ffffa6e8:	e5832004 	str	r2, [r3, #4]
ffffa6ec:	ebffffd1 	bl	ffffa638 <sda_read>
ffffa6f0:	e2504000 	subs	r4, r0, #0
ffffa6f4:	0a00000a 	beq	ffffa724 <i2c_gpio_send_stop+0x6c>
ffffa6f8:	e3a04001 	mov	r4, #1
ffffa6fc:	ebffffd8 	bl	ffffa664 <i2c_delay.constprop.4>
ffffa700:	ea000003 	b	ffffa714 <i2c_gpio_send_stop+0x5c>
ffffa704:	e2555001 	subs	r5, r5, #1
ffffa708:	1a000003 	bne	ffffa71c <i2c_gpio_send_stop+0x64>
ffffa70c:	e59f0028 	ldr	r0, [pc, #40]	; ffffa73c <i2c_gpio_send_stop+0x84>
ffffa710:	ebfffac3 	bl	ffff9224 <printf>
ffffa714:	e1a00004 	mov	r0, r4
ffffa718:	e8bd8070 	pop	{r4, r5, r6, pc}
ffffa71c:	ebffffd0 	bl	ffffa664 <i2c_delay.constprop.4>
ffffa720:	eaffffe8 	b	ffffa6c8 <i2c_gpio_send_stop+0x10>
ffffa724:	e2555001 	subs	r5, r5, #1
ffffa728:	059f0010 	ldreq	r0, [pc, #16]	; ffffa740 <i2c_gpio_send_stop+0x88>
ffffa72c:	0afffff7 	beq	ffffa710 <i2c_gpio_send_stop+0x58>
ffffa730:	ebffffcb 	bl	ffffa664 <i2c_delay.constprop.4>
ffffa734:	eaffffec 	b	ffffa6ec <i2c_gpio_send_stop+0x34>
ffffa738:	ffffd0f0 	.word	0xffffd0f0
ffffa73c:	ffffb61d 	.word	0xffffb61d
ffffa740:	ffffb649 	.word	0xffffb649

ffffa744 <i2c_read_bit>:
ffffa744:	e92d4070 	push	{r4, r5, r6, lr}
ffffa748:	e3a04065 	mov	r4, #101	; 0x65
ffffa74c:	e1a06000 	mov	r6, r0
ffffa750:	ebffffc3 	bl	ffffa664 <i2c_delay.constprop.4>
ffffa754:	ebffffb7 	bl	ffffa638 <sda_read>
ffffa758:	ebffffc1 	bl	ffffa664 <i2c_delay.constprop.4>
ffffa75c:	ebffffaa 	bl	ffffa60c <scl_read>
ffffa760:	e2505000 	subs	r5, r0, #0
ffffa764:	0a000005 	beq	ffffa780 <i2c_read_bit+0x3c>
ffffa768:	e3a05001 	mov	r5, #1
ffffa76c:	ebffffb1 	bl	ffffa638 <sda_read>
ffffa770:	e5860000 	str	r0, [r6]
ffffa774:	ebffffba 	bl	ffffa664 <i2c_delay.constprop.4>
ffffa778:	ebffff9d 	bl	ffffa5f4 <scl_low>
ffffa77c:	ea000004 	b	ffffa794 <i2c_read_bit+0x50>
ffffa780:	e2544001 	subs	r4, r4, #1
ffffa784:	1a000004 	bne	ffffa79c <i2c_read_bit+0x58>
ffffa788:	e59f1014 	ldr	r1, [pc, #20]	; ffffa7a4 <i2c_read_bit+0x60>
ffffa78c:	e59f0014 	ldr	r0, [pc, #20]	; ffffa7a8 <i2c_read_bit+0x64>
ffffa790:	ebfffaa3 	bl	ffff9224 <printf>
ffffa794:	e1a00005 	mov	r0, r5
ffffa798:	e8bd8070 	pop	{r4, r5, r6, pc}
ffffa79c:	ebffffb0 	bl	ffffa664 <i2c_delay.constprop.4>
ffffa7a0:	eaffffed 	b	ffffa75c <i2c_read_bit+0x18>
ffffa7a4:	ffffb5df 	.word	0xffffb5df
ffffa7a8:	ffffb66b 	.word	0xffffb66b

ffffa7ac <i2c_write_bit>:
ffffa7ac:	e92d4070 	push	{r4, r5, r6, lr}
ffffa7b0:	e1a06000 	mov	r6, r0
ffffa7b4:	ebffffaa 	bl	ffffa664 <i2c_delay.constprop.4>
ffffa7b8:	e3500000 	cmp	r0, #0
ffffa7bc:	0a00000d 	beq	ffffa7f8 <i2c_write_bit+0x4c>
ffffa7c0:	ebffff9c 	bl	ffffa638 <sda_read>
ffffa7c4:	e3a05065 	mov	r5, #101	; 0x65
ffffa7c8:	ebffffa5 	bl	ffffa664 <i2c_delay.constprop.4>
ffffa7cc:	ebffff8e 	bl	ffffa60c <scl_read>
ffffa7d0:	e2504000 	subs	r4, r0, #0
ffffa7d4:	0a000009 	beq	ffffa800 <i2c_write_bit+0x54>
ffffa7d8:	e3560000 	cmp	r6, #0
ffffa7dc:	0a000010 	beq	ffffa824 <i2c_write_bit+0x78>
ffffa7e0:	ebffff94 	bl	ffffa638 <sda_read>
ffffa7e4:	e2504000 	subs	r4, r0, #0
ffffa7e8:	1a00000d 	bne	ffffa824 <i2c_write_bit+0x78>
ffffa7ec:	e59f1040 	ldr	r1, [pc, #64]	; ffffa834 <i2c_write_bit+0x88>
ffffa7f0:	e59f0040 	ldr	r0, [pc, #64]	; ffffa838 <i2c_write_bit+0x8c>
ffffa7f4:	ea000005 	b	ffffa810 <i2c_write_bit+0x64>
ffffa7f8:	ebffff77 	bl	ffffa5dc <sda_low>
ffffa7fc:	eafffff0 	b	ffffa7c4 <i2c_write_bit+0x18>
ffffa800:	e2555001 	subs	r5, r5, #1
ffffa804:	1a000004 	bne	ffffa81c <i2c_write_bit+0x70>
ffffa808:	e59f1024 	ldr	r1, [pc, #36]	; ffffa834 <i2c_write_bit+0x88>
ffffa80c:	e59f0028 	ldr	r0, [pc, #40]	; ffffa83c <i2c_write_bit+0x90>
ffffa810:	ebfffa83 	bl	ffff9224 <printf>
ffffa814:	e1a00004 	mov	r0, r4
ffffa818:	e8bd8070 	pop	{r4, r5, r6, pc}
ffffa81c:	ebffff90 	bl	ffffa664 <i2c_delay.constprop.4>
ffffa820:	eaffffe9 	b	ffffa7cc <i2c_write_bit+0x20>
ffffa824:	e3a04001 	mov	r4, #1
ffffa828:	ebffff8d 	bl	ffffa664 <i2c_delay.constprop.4>
ffffa82c:	ebffff70 	bl	ffffa5f4 <scl_low>
ffffa830:	eafffff7 	b	ffffa814 <i2c_write_bit+0x68>
ffffa834:	ffffb5ec 	.word	0xffffb5ec
ffffa838:	ffffb693 	.word	0xffffb693
ffffa83c:	ffffb66b 	.word	0xffffb66b

ffffa840 <i2c_write_byte>:
ffffa840:	e3500000 	cmp	r0, #0
ffffa844:	e92d47f0 	push	{r4, r5, r6, r7, r8, r9, sl, lr}
ffffa848:	e1a09001 	mov	r9, r1
ffffa84c:	e1a05002 	mov	r5, r2
ffffa850:	e1a08003 	mov	r8, r3
ffffa854:	0a00001e 	beq	ffffa8d4 <i2c_write_byte+0x94>
ffffa858:	e59f30e4 	ldr	r3, [pc, #228]	; ffffa944 <i2c_write_byte+0x104>
ffffa85c:	e5932004 	ldr	r2, [r3, #4]
ffffa860:	e1a06003 	mov	r6, r3
ffffa864:	e3520001 	cmp	r2, #1
ffffa868:	1a000006 	bne	ffffa888 <i2c_write_byte+0x48>
ffffa86c:	e3a07065 	mov	r7, #101	; 0x65
ffffa870:	ebffff70 	bl	ffffa638 <sda_read>
ffffa874:	ebffff7a 	bl	ffffa664 <i2c_delay.constprop.4>
ffffa878:	ebffff63 	bl	ffffa60c <scl_read>
ffffa87c:	e2504000 	subs	r4, r0, #0
ffffa880:	0a000006 	beq	ffffa8a0 <i2c_write_byte+0x60>
ffffa884:	ebffff76 	bl	ffffa664 <i2c_delay.constprop.4>
ffffa888:	ebffff6a 	bl	ffffa638 <sda_read>
ffffa88c:	e2504000 	subs	r4, r0, #0
ffffa890:	1a00000a 	bne	ffffa8c0 <i2c_write_byte+0x80>
ffffa894:	e59f10ac 	ldr	r1, [pc, #172]	; ffffa948 <i2c_write_byte+0x108>
ffffa898:	e59f00ac 	ldr	r0, [pc, #172]	; ffffa94c <i2c_write_byte+0x10c>
ffffa89c:	ea000003 	b	ffffa8b0 <i2c_write_byte+0x70>
ffffa8a0:	e2577001 	subs	r7, r7, #1
ffffa8a4:	1a000003 	bne	ffffa8b8 <i2c_write_byte+0x78>
ffffa8a8:	e59f1098 	ldr	r1, [pc, #152]	; ffffa948 <i2c_write_byte+0x108>
ffffa8ac:	e59f009c 	ldr	r0, [pc, #156]	; ffffa950 <i2c_write_byte+0x110>
ffffa8b0:	ebfffa5b 	bl	ffff9224 <printf>
ffffa8b4:	ea00000c 	b	ffffa8ec <i2c_write_byte+0xac>
ffffa8b8:	ebffff69 	bl	ffffa664 <i2c_delay.constprop.4>
ffffa8bc:	eaffffed 	b	ffffa878 <i2c_write_byte+0x38>
ffffa8c0:	ebffff45 	bl	ffffa5dc <sda_low>
ffffa8c4:	ebffff66 	bl	ffffa664 <i2c_delay.constprop.4>
ffffa8c8:	ebffff49 	bl	ffffa5f4 <scl_low>
ffffa8cc:	e3a03001 	mov	r3, #1
ffffa8d0:	e5863004 	str	r3, [r6, #4]
ffffa8d4:	e3a04008 	mov	r4, #8
ffffa8d8:	e1a003a5 	lsr	r0, r5, #7
ffffa8dc:	ebffffb2 	bl	ffffa7ac <i2c_write_bit>
ffffa8e0:	e3500000 	cmp	r0, #0
ffffa8e4:	1a000002 	bne	ffffa8f4 <i2c_write_byte+0xb4>
ffffa8e8:	e3a04000 	mov	r4, #0
ffffa8ec:	e1a00004 	mov	r0, r4
ffffa8f0:	e8bd87f0 	pop	{r4, r5, r6, r7, r8, r9, sl, pc}
ffffa8f4:	e1a05085 	lsl	r5, r5, #1
ffffa8f8:	e2544001 	subs	r4, r4, #1
ffffa8fc:	e6ef5075 	uxtb	r5, r5
ffffa900:	1afffff4 	bne	ffffa8d8 <i2c_write_byte+0x98>
ffffa904:	e1a00008 	mov	r0, r8
ffffa908:	ebffff8d 	bl	ffffa744 <i2c_read_bit>
ffffa90c:	e3500000 	cmp	r0, #0
ffffa910:	0afffff4 	beq	ffffa8e8 <i2c_write_byte+0xa8>
ffffa914:	e5983000 	ldr	r3, [r8]
ffffa918:	e3530001 	cmp	r3, #1
ffffa91c:	059f1030 	ldreq	r1, [pc, #48]	; ffffa954 <i2c_write_byte+0x114>
ffffa920:	059f0030 	ldreq	r0, [pc, #48]	; ffffa958 <i2c_write_byte+0x118>
ffffa924:	0affffe1 	beq	ffffa8b0 <i2c_write_byte+0x70>
ffffa928:	e3590000 	cmp	r9, #0
ffffa92c:	03a04001 	moveq	r4, #1
ffffa930:	0affffed 	beq	ffffa8ec <i2c_write_byte+0xac>
ffffa934:	ebffff5f 	bl	ffffa6b8 <i2c_gpio_send_stop>
ffffa938:	e2904000 	adds	r4, r0, #0
ffffa93c:	13a04001 	movne	r4, #1
ffffa940:	eaffffe9 	b	ffffa8ec <i2c_write_byte+0xac>
ffffa944:	ffffd0f0 	.word	0xffffd0f0
ffffa948:	ffffb5fa 	.word	0xffffb5fa
ffffa94c:	ffffb693 	.word	0xffffb693
ffffa950:	ffffb66b 	.word	0xffffb66b
ffffa954:	ffffb60e 	.word	0xffffb60e
ffffa958:	ffffb6b1 	.word	0xffffb6b1

ffffa95c <i2c_gpio_read>:
ffffa95c:	e92d41f3 	push	{r0, r1, r4, r5, r6, r7, r8, lr}
ffffa960:	e1a05001 	mov	r5, r1
ffffa964:	e1a04080 	lsl	r4, r0, #1
ffffa968:	e1a06002 	mov	r6, r2
ffffa96c:	e1a07003 	mov	r7, r3
ffffa970:	e20420fe 	and	r2, r4, #254	; 0xfe
ffffa974:	e1a0300d 	mov	r3, sp
ffffa978:	e3a01000 	mov	r1, #0
ffffa97c:	e3a00001 	mov	r0, #1
ffffa980:	ebffffae 	bl	ffffa840 <i2c_write_byte>
ffffa984:	e3500000 	cmp	r0, #0
ffffa988:	1a000003 	bne	ffffa99c <i2c_gpio_read+0x40>
ffffa98c:	e59f00f4 	ldr	r0, [pc, #244]	; ffffaa88 <i2c_gpio_read+0x12c>
ffffa990:	ebfffa23 	bl	ffff9224 <printf>
ffffa994:	e3a00000 	mov	r0, #0
ffffa998:	ea00001c 	b	ffffaa10 <i2c_gpio_read+0xb4>
ffffa99c:	e59d3000 	ldr	r3, [sp]
ffffa9a0:	e3530001 	cmp	r3, #1
ffffa9a4:	0afffff8 	beq	ffffa98c <i2c_gpio_read+0x30>
ffffa9a8:	e3a01000 	mov	r1, #0
ffffa9ac:	e1a0300d 	mov	r3, sp
ffffa9b0:	e1a02005 	mov	r2, r5
ffffa9b4:	e1a00001 	mov	r0, r1
ffffa9b8:	ebffffa0 	bl	ffffa840 <i2c_write_byte>
ffffa9bc:	e3500000 	cmp	r0, #0
ffffa9c0:	0afffff1 	beq	ffffa98c <i2c_gpio_read+0x30>
ffffa9c4:	e59d3000 	ldr	r3, [sp]
ffffa9c8:	e3530001 	cmp	r3, #1
ffffa9cc:	0affffee 	beq	ffffa98c <i2c_gpio_read+0x30>
ffffa9d0:	e3842001 	orr	r2, r4, #1
ffffa9d4:	e1a0300d 	mov	r3, sp
ffffa9d8:	e6ef2072 	uxtb	r2, r2
ffffa9dc:	e3a01000 	mov	r1, #0
ffffa9e0:	e3a00001 	mov	r0, #1
ffffa9e4:	ebffff95 	bl	ffffa840 <i2c_write_byte>
ffffa9e8:	e3500000 	cmp	r0, #0
ffffa9ec:	0affffe6 	beq	ffffa98c <i2c_gpio_read+0x30>
ffffa9f0:	e59d3000 	ldr	r3, [sp]
ffffa9f4:	e3530001 	cmp	r3, #1
ffffa9f8:	12466001 	subne	r6, r6, #1
ffffa9fc:	13a05000 	movne	r5, #0
ffffaa00:	0affffe1 	beq	ffffa98c <i2c_gpio_read+0x30>
ffffaa04:	e1550007 	cmp	r5, r7
ffffaa08:	ba000002 	blt	ffffaa18 <i2c_gpio_read+0xbc>
ffffaa0c:	e3a00001 	mov	r0, #1
ffffaa10:	e28dd008 	add	sp, sp, #8
ffffaa14:	e8bd81f0 	pop	{r4, r5, r6, r7, r8, pc}
ffffaa18:	e3a08008 	mov	r8, #8
ffffaa1c:	e3a04000 	mov	r4, #0
ffffaa20:	e28d0004 	add	r0, sp, #4
ffffaa24:	ebffff46 	bl	ffffa744 <i2c_read_bit>
ffffaa28:	e3500000 	cmp	r0, #0
ffffaa2c:	0a000013 	beq	ffffaa80 <i2c_gpio_read+0x124>
ffffaa30:	e1a04084 	lsl	r4, r4, #1
ffffaa34:	e59d3004 	ldr	r3, [sp, #4]
ffffaa38:	e3530000 	cmp	r3, #0
ffffaa3c:	13844001 	orrne	r4, r4, #1
ffffaa40:	e2588001 	subs	r8, r8, #1
ffffaa44:	e6ef4074 	uxtb	r4, r4
ffffaa48:	1afffff4 	bne	ffffaa20 <i2c_gpio_read+0xc4>
ffffaa4c:	e5e64001 	strb	r4, [r6, #1]!
ffffaa50:	e2855001 	add	r5, r5, #1
ffffaa54:	e0470005 	sub	r0, r7, r5
ffffaa58:	e16f0f10 	clz	r0, r0
ffffaa5c:	e1a002a0 	lsr	r0, r0, #5
ffffaa60:	ebffff51 	bl	ffffa7ac <i2c_write_bit>
ffffaa64:	e3500000 	cmp	r0, #0
ffffaa68:	0a000004 	beq	ffffaa80 <i2c_gpio_read+0x124>
ffffaa6c:	e1570005 	cmp	r7, r5
ffffaa70:	1affffe3 	bne	ffffaa04 <i2c_gpio_read+0xa8>
ffffaa74:	ebffff0f 	bl	ffffa6b8 <i2c_gpio_send_stop>
ffffaa78:	e3500000 	cmp	r0, #0
ffffaa7c:	1affffe0 	bne	ffffaa04 <i2c_gpio_read+0xa8>
ffffaa80:	e59f0004 	ldr	r0, [pc, #4]	; ffffaa8c <i2c_gpio_read+0x130>
ffffaa84:	eaffffc1 	b	ffffa990 <i2c_gpio_read+0x34>
ffffaa88:	ffffb6f5 	.word	0xffffb6f5
ffffaa8c:	ffffb6c8 	.word	0xffffb6c8

ffffaa90 <i2c_gpio_write>:
ffffaa90:	e92d40f7 	push	{r0, r1, r2, r4, r5, r6, r7, lr}
ffffaa94:	e1a07002 	mov	r7, r2
ffffaa98:	e1a02080 	lsl	r2, r0, #1
ffffaa9c:	e1a05001 	mov	r5, r1
ffffaaa0:	e1a06003 	mov	r6, r3
ffffaaa4:	e20220fe 	and	r2, r2, #254	; 0xfe
ffffaaa8:	e28d3004 	add	r3, sp, #4
ffffaaac:	e3a01000 	mov	r1, #0
ffffaab0:	e3a00001 	mov	r0, #1
ffffaab4:	ebffff61 	bl	ffffa840 <i2c_write_byte>
ffffaab8:	e2504000 	subs	r4, r0, #0
ffffaabc:	059f00a8 	ldreq	r0, [pc, #168]	; ffffab6c <i2c_gpio_write+0xdc>
ffffaac0:	0a00001e 	beq	ffffab40 <i2c_gpio_write+0xb0>
ffffaac4:	e59d3004 	ldr	r3, [sp, #4]
ffffaac8:	e3530001 	cmp	r3, #1
ffffaacc:	059f009c 	ldreq	r0, [pc, #156]	; ffffab70 <i2c_gpio_write+0xe0>
ffffaad0:	0a000022 	beq	ffffab60 <i2c_gpio_write+0xd0>
ffffaad4:	e3a01000 	mov	r1, #0
ffffaad8:	e28d3004 	add	r3, sp, #4
ffffaadc:	e1a02005 	mov	r2, r5
ffffaae0:	e1a00001 	mov	r0, r1
ffffaae4:	ebffff55 	bl	ffffa840 <i2c_write_byte>
ffffaae8:	e2504000 	subs	r4, r0, #0
ffffaaec:	059f0080 	ldreq	r0, [pc, #128]	; ffffab74 <i2c_gpio_write+0xe4>
ffffaaf0:	0a000012 	beq	ffffab40 <i2c_gpio_write+0xb0>
ffffaaf4:	e59d3004 	ldr	r3, [sp, #4]
ffffaaf8:	e3530001 	cmp	r3, #1
ffffaafc:	059f0074 	ldreq	r0, [pc, #116]	; ffffab78 <i2c_gpio_write+0xe8>
ffffab00:	0a000016 	beq	ffffab60 <i2c_gpio_write+0xd0>
ffffab04:	e3a05000 	mov	r5, #0
ffffab08:	e1550006 	cmp	r5, r6
ffffab0c:	a3a04001 	movge	r4, #1
ffffab10:	aa00000b 	bge	ffffab44 <i2c_gpio_write+0xb4>
ffffab14:	e4d72001 	ldrb	r2, [r7], #1
ffffab18:	e2855001 	add	r5, r5, #1
ffffab1c:	e0461005 	sub	r1, r6, r5
ffffab20:	e28d3004 	add	r3, sp, #4
ffffab24:	e16f1f11 	clz	r1, r1
ffffab28:	e3a00000 	mov	r0, #0
ffffab2c:	e1a012a1 	lsr	r1, r1, #5
ffffab30:	ebffff42 	bl	ffffa840 <i2c_write_byte>
ffffab34:	e2504000 	subs	r4, r0, #0
ffffab38:	1a000004 	bne	ffffab50 <i2c_gpio_write+0xc0>
ffffab3c:	e59f0038 	ldr	r0, [pc, #56]	; ffffab7c <i2c_gpio_write+0xec>
ffffab40:	ebfff9b7 	bl	ffff9224 <printf>
ffffab44:	e1a00004 	mov	r0, r4
ffffab48:	e28dd00c 	add	sp, sp, #12
ffffab4c:	e8bd80f0 	pop	{r4, r5, r6, r7, pc}
ffffab50:	e59d3004 	ldr	r3, [sp, #4]
ffffab54:	e3530001 	cmp	r3, #1
ffffab58:	1affffea 	bne	ffffab08 <i2c_gpio_write+0x78>
ffffab5c:	e59f001c 	ldr	r0, [pc, #28]	; ffffab80 <i2c_gpio_write+0xf0>
ffffab60:	e3a04000 	mov	r4, #0
ffffab64:	ebfff9ae 	bl	ffff9224 <printf>
ffffab68:	eafffff5 	b	ffffab44 <i2c_gpio_write+0xb4>
ffffab6c:	ffffb6f2 	.word	0xffffb6f2
ffffab70:	ffffb723 	.word	0xffffb723
ffffab74:	ffffb754 	.word	0xffffb754
ffffab78:	ffffb785 	.word	0xffffb785
ffffab7c:	ffffb7b6 	.word	0xffffb7b6
ffffab80:	ffffb7e4 	.word	0xffffb7e4

ffffab84 <i2c_gpio_init>:
ffffab84:	e92d41f0 	push	{r4, r5, r6, r7, r8, lr}
ffffab88:	e3a05001 	mov	r5, #1
ffffab8c:	e59f40b0 	ldr	r4, [pc, #176]	; ffffac44 <i2c_gpio_init+0xc0>
ffffab90:	e1a07003 	mov	r7, r3
ffffab94:	e59d6018 	ldr	r6, [sp, #24]
ffffab98:	e5c42000 	strb	r2, [r4]
ffffab9c:	e3a02000 	mov	r2, #0
ffffaba0:	e5c40001 	strb	r0, [r4, #1]
ffffaba4:	e5c41002 	strb	r1, [r4, #2]
ffffaba8:	e5845004 	str	r5, [r4, #4]
ffffabac:	ebfffe37 	bl	ffffa490 <gpio_set_output>
ffffabb0:	e5d41000 	ldrb	r1, [r4]
ffffabb4:	e3a02000 	mov	r2, #0
ffffabb8:	e5d40001 	ldrb	r0, [r4, #1]
ffffabbc:	ebfffe33 	bl	ffffa490 <gpio_set_output>
ffffabc0:	e5d41002 	ldrb	r1, [r4, #2]
ffffabc4:	e3a02000 	mov	r2, #0
ffffabc8:	e5d40001 	ldrb	r0, [r4, #1]
ffffabcc:	ebfffe1d 	bl	ffffa448 <gpio_set_outenb>
ffffabd0:	e5d41000 	ldrb	r1, [r4]
ffffabd4:	e3a02000 	mov	r2, #0
ffffabd8:	e5d40001 	ldrb	r0, [r4, #1]
ffffabdc:	ebfffe19 	bl	ffffa448 <gpio_set_outenb>
ffffabe0:	e5d41002 	ldrb	r1, [r4, #2]
ffffabe4:	e1a02007 	mov	r2, r7
ffffabe8:	e5d40001 	ldrb	r0, [r4, #1]
ffffabec:	ebfffe5f 	bl	ffffa570 <gpio_set_alt_function>
ffffabf0:	e5d41000 	ldrb	r1, [r4]
ffffabf4:	e1a02006 	mov	r2, r6
ffffabf8:	e5d40001 	ldrb	r0, [r4, #1]
ffffabfc:	ebfffe5b 	bl	ffffa570 <gpio_set_alt_function>
ffffac00:	e5d41002 	ldrb	r1, [r4, #2]
ffffac04:	e1a02005 	mov	r2, r5
ffffac08:	e5d40001 	ldrb	r0, [r4, #1]
ffffac0c:	ebfffe32 	bl	ffffa4dc <gpio_set_pullenb>
ffffac10:	e5d41002 	ldrb	r1, [r4, #2]
ffffac14:	e1a02005 	mov	r2, r5
ffffac18:	e5d40001 	ldrb	r0, [r4, #1]
ffffac1c:	ebfffe40 	bl	ffffa524 <gpio_set_pull>
ffffac20:	e5d41000 	ldrb	r1, [r4]
ffffac24:	e1a02005 	mov	r2, r5
ffffac28:	e5d40001 	ldrb	r0, [r4, #1]
ffffac2c:	ebfffe2a 	bl	ffffa4dc <gpio_set_pullenb>
ffffac30:	e5d41000 	ldrb	r1, [r4]
ffffac34:	e1a02005 	mov	r2, r5
ffffac38:	e5d40001 	ldrb	r0, [r4, #1]
ffffac3c:	e8bd41f0 	pop	{r4, r5, r6, r7, r8, lr}
ffffac40:	eafffe37 	b	ffffa524 <gpio_set_pull>
ffffac44:	ffffd0f0 	.word	0xffffd0f0

ffffac48 <i2c_gpio_deinit>:
ffffac48:	e92d4010 	push	{r4, lr}
ffffac4c:	e3a02000 	mov	r2, #0
ffffac50:	e59f409c 	ldr	r4, [pc, #156]	; ffffacf4 <i2c_gpio_deinit+0xac>
ffffac54:	e5d41002 	ldrb	r1, [r4, #2]
ffffac58:	e5d40001 	ldrb	r0, [r4, #1]
ffffac5c:	ebfffe0b 	bl	ffffa490 <gpio_set_output>
ffffac60:	e5d41000 	ldrb	r1, [r4]
ffffac64:	e3a02000 	mov	r2, #0
ffffac68:	e5d40001 	ldrb	r0, [r4, #1]
ffffac6c:	ebfffe07 	bl	ffffa490 <gpio_set_output>
ffffac70:	e5d41002 	ldrb	r1, [r4, #2]
ffffac74:	e3a02000 	mov	r2, #0
ffffac78:	e5d40001 	ldrb	r0, [r4, #1]
ffffac7c:	ebfffdf1 	bl	ffffa448 <gpio_set_outenb>
ffffac80:	e5d41000 	ldrb	r1, [r4]
ffffac84:	e3a02000 	mov	r2, #0
ffffac88:	e5d40001 	ldrb	r0, [r4, #1]
ffffac8c:	ebfffded 	bl	ffffa448 <gpio_set_outenb>
ffffac90:	e5d41002 	ldrb	r1, [r4, #2]
ffffac94:	e3a02000 	mov	r2, #0
ffffac98:	e5d40001 	ldrb	r0, [r4, #1]
ffffac9c:	ebfffe33 	bl	ffffa570 <gpio_set_alt_function>
ffffaca0:	e5d41000 	ldrb	r1, [r4]
ffffaca4:	e3a02000 	mov	r2, #0
ffffaca8:	e5d40001 	ldrb	r0, [r4, #1]
ffffacac:	ebfffe2f 	bl	ffffa570 <gpio_set_alt_function>
ffffacb0:	e5d41002 	ldrb	r1, [r4, #2]
ffffacb4:	e3a02000 	mov	r2, #0
ffffacb8:	e5d40001 	ldrb	r0, [r4, #1]
ffffacbc:	ebfffe06 	bl	ffffa4dc <gpio_set_pullenb>
ffffacc0:	e5d41002 	ldrb	r1, [r4, #2]
ffffacc4:	e3a02000 	mov	r2, #0
ffffacc8:	e5d40001 	ldrb	r0, [r4, #1]
ffffaccc:	ebfffe14 	bl	ffffa524 <gpio_set_pull>
ffffacd0:	e5d41000 	ldrb	r1, [r4]
ffffacd4:	e3a02000 	mov	r2, #0
ffffacd8:	e5d40001 	ldrb	r0, [r4, #1]
ffffacdc:	ebfffdfe 	bl	ffffa4dc <gpio_set_pullenb>
fffface0:	e5d41000 	ldrb	r1, [r4]
fffface4:	e3a02000 	mov	r2, #0
fffface8:	e5d40001 	ldrb	r0, [r4, #1]
ffffacec:	e8bd4010 	pop	{r4, lr}
ffffacf0:	eafffe0b 	b	ffffa524 <gpio_set_pull>
ffffacf4:	ffffd0f0 	.word	0xffffd0f0

ffffacf8 <asv_get_core_vol>:
ffffacf8:	e92d4070 	push	{r4, r5, r6, lr}
ffffacfc:	e3a00001 	mov	r0, #1
ffffad00:	e59f4048 	ldr	r4, [pc, #72]	; ffffad50 <asv_get_core_vol+0x58>
ffffad04:	e594506c 	ldr	r5, [r4, #108]	; 0x6c
ffffad08:	ebfffd8b 	bl	ffffa33c <efuse_get_ecid>
ffffad0c:	e3a00002 	mov	r0, #2
ffffad10:	ebfff619 	bl	ffff857c <get_pll_freq>
ffffad14:	e2842004 	add	r2, r4, #4
ffffad18:	e3a03000 	mov	r3, #0
ffffad1c:	e5b21004 	ldr	r1, [r2, #4]!
ffffad20:	e1500001 	cmp	r0, r1
ffffad24:	1a000005 	bne	ffffad40 <asv_get_core_vol+0x48>
ffffad28:	e0844103 	add	r4, r4, r3, lsl #2
ffffad2c:	e3a03ffa 	mov	r3, #1000	; 0x3e8
ffffad30:	e594503c 	ldr	r5, [r4, #60]	; 0x3c
ffffad34:	e735f315 	udiv	r5, r5, r3
ffffad38:	e1a00005 	mov	r0, r5
ffffad3c:	e8bd8070 	pop	{r4, r5, r6, pc}
ffffad40:	e2833001 	add	r3, r3, #1
ffffad44:	e353000d 	cmp	r3, #13
ffffad48:	1afffff3 	bne	ffffad1c <asv_get_core_vol+0x24>
ffffad4c:	eafffff9 	b	ffffad38 <asv_get_core_vol+0x40>
ffffad50:	ffffd000 	.word	0xffffd000

ffffad54 <asv_get_arm_vol>:
ffffad54:	e92d4070 	push	{r4, r5, r6, lr}
ffffad58:	e3a00002 	mov	r0, #2
ffffad5c:	e59f4040 	ldr	r4, [pc, #64]	; ffffada4 <asv_get_arm_vol+0x50>
ffffad60:	e5945038 	ldr	r5, [r4, #56]	; 0x38
ffffad64:	ebfff604 	bl	ffff857c <get_pll_freq>
ffffad68:	e2842004 	add	r2, r4, #4
ffffad6c:	e3a03000 	mov	r3, #0
ffffad70:	e5b21004 	ldr	r1, [r2, #4]!
ffffad74:	e1500001 	cmp	r0, r1
ffffad78:	1a000005 	bne	ffffad94 <asv_get_arm_vol+0x40>
ffffad7c:	e0844103 	add	r4, r4, r3, lsl #2
ffffad80:	e3a03ffa 	mov	r3, #1000	; 0x3e8
ffffad84:	e594503c 	ldr	r5, [r4, #60]	; 0x3c
ffffad88:	e735f315 	udiv	r5, r5, r3
ffffad8c:	e1a00005 	mov	r0, r5
ffffad90:	e8bd8070 	pop	{r4, r5, r6, pc}
ffffad94:	e2833001 	add	r3, r3, #1
ffffad98:	e353000d 	cmp	r3, #13
ffffad9c:	1afffff3 	bne	ffffad70 <asv_get_arm_vol+0x1c>
ffffada0:	eafffff9 	b	ffffad8c <asv_get_arm_vol+0x38>
ffffada4:	ffffd000 	.word	0xffffd000

ffffada8 <pmic_initialize>:
ffffada8:	ea00005a 	b	ffffaf18 <pmic_board_init>

ffffadac <sm5011_get_buck_vol>:
ffffadac:	e59f2014 	ldr	r2, [pc, #20]	; ffffadc8 <sm5011_get_buck_vol+0x1c>
ffffadb0:	e3a03ffa 	mov	r3, #1000	; 0x3e8
ffffadb4:	e0302093 	mlas	r0, r3, r0, r2
ffffadb8:	530330d4 	movwpl	r3, #12500	; 0x30d4
ffffadbc:	5710f310 	sdivpl	r0, r0, r3
ffffadc0:	43e00000 	mvnmi	r0, #0
ffffadc4:	e12fff1e 	bx	lr
ffffadc8:	fff76abc 	.word	0xfff76abc

ffffadcc <sm5011_get_ldo_vol>:
ffffadcc:	e3a03ffa 	mov	r3, #1000	; 0x3e8
ffffadd0:	e0000093 	mul	r0, r3, r0
ffffadd4:	e2400ac3 	sub	r0, r0, #798720	; 0xc3000
ffffadd8:	e2400c05 	sub	r0, r0, #1280	; 0x500
ffffaddc:	e3500000 	cmp	r0, #0
ffffade0:	ba000002 	blt	ffffadf0 <sm5011_get_ldo_vol+0x24>
ffffade4:	130c3350 	movwne	r3, #50000	; 0xc350
ffffade8:	1710f310 	sdivne	r0, r0, r3
ffffadec:	e12fff1e 	bx	lr
ffffadf0:	e3e00000 	mvn	r0, #0
ffffadf4:	e12fff1e 	bx	lr

ffffadf8 <sm5011_read>:
ffffadf8:	e92d4070 	push	{r4, r5, r6, lr}
ffffadfc:	e3a03001 	mov	r3, #1
ffffae00:	e1a04001 	mov	r4, r1
ffffae04:	e1a05002 	mov	r5, r2
ffffae08:	e1a02001 	mov	r2, r1
ffffae0c:	e1a01000 	mov	r1, r0
ffffae10:	e3a00047 	mov	r0, #71	; 0x47
ffffae14:	ebfffed0 	bl	ffffa95c <i2c_gpio_read>
ffffae18:	e3500000 	cmp	r0, #0
ffffae1c:	15d40000 	ldrbne	r0, [r4]
ffffae20:	10000005 	andne	r0, r0, r5
ffffae24:	e8bd8070 	pop	{r4, r5, r6, pc}

ffffae28 <sm5011_write>:
ffffae28:	e92d4007 	push	{r0, r1, r2, lr}
ffffae2c:	e5d13000 	ldrb	r3, [r1]
ffffae30:	e1a01000 	mov	r1, r0
ffffae34:	e3a00047 	mov	r0, #71	; 0x47
ffffae38:	e0033002 	and	r3, r3, r2
ffffae3c:	e28d2008 	add	r2, sp, #8
ffffae40:	e5623001 	strb	r3, [r2, #-1]!
ffffae44:	e3a03001 	mov	r3, #1
ffffae48:	ebffff10 	bl	ffffaa90 <i2c_gpio_write>
ffffae4c:	e3500000 	cmp	r0, #0
ffffae50:	15dd0007 	ldrbne	r0, [sp, #7]
ffffae54:	e28dd00c 	add	sp, sp, #12
ffffae58:	e49df004 	pop	{pc}		; (ldr pc, [sp], #4)

ffffae5c <sm5011_sboot_output_cntl>:
ffffae5c:	e92d4030 	push	{r4, r5, lr}
ffffae60:	e3510003 	cmp	r1, #3
ffffae64:	e24dd014 	sub	sp, sp, #20
ffffae68:	e5cd2007 	strb	r2, [sp, #7]
ffffae6c:	1a000024 	bne	ffffaf04 <sm5011_sboot_output_cntl+0xa8>
ffffae70:	e3a02007 	mov	r2, #7
ffffae74:	e28d100f 	add	r1, sp, #15
ffffae78:	e1a05003 	mov	r5, r3
ffffae7c:	e1a04000 	mov	r4, r0
ffffae80:	ebffffdc 	bl	ffffadf8 <sm5011_read>
ffffae84:	e5dd300f 	ldrb	r3, [sp, #15]
ffffae88:	e3130003 	tst	r3, #3
ffffae8c:	0a00000c 	beq	ffffaec4 <sm5011_sboot_output_cntl+0x68>
ffffae90:	e3a03000 	mov	r3, #0
ffffae94:	e3a02007 	mov	r2, #7
ffffae98:	e5cd300f 	strb	r3, [sp, #15]
ffffae9c:	e28d100f 	add	r1, sp, #15
ffffaea0:	e1a00004 	mov	r0, r4
ffffaea4:	ebffffdf 	bl	ffffae28 <sm5011_write>
ffffaea8:	e3500000 	cmp	r0, #0
ffffaeac:	1a000002 	bne	ffffaebc <sm5011_sboot_output_cntl+0x60>
ffffaeb0:	e3a00000 	mov	r0, #0
ffffaeb4:	e28dd014 	add	sp, sp, #20
ffffaeb8:	e8bd8030 	pop	{r4, r5, pc}
ffffaebc:	e3a00005 	mov	r0, #5
ffffaec0:	ebfff574 	bl	ffff8498 <mdelay>
ffffaec4:	e2840001 	add	r0, r4, #1
ffffaec8:	e3a03003 	mov	r3, #3
ffffaecc:	e5cd300e 	strb	r3, [sp, #14]
ffffaed0:	e1a02005 	mov	r2, r5
ffffaed4:	e28d1007 	add	r1, sp, #7
ffffaed8:	e6ef0070 	uxtb	r0, r0
ffffaedc:	ebffffd1 	bl	ffffae28 <sm5011_write>
ffffaee0:	e3500000 	cmp	r0, #0
ffffaee4:	13a02007 	movne	r2, #7
ffffaee8:	128d100e 	addne	r1, sp, #14
ffffaeec:	11a00004 	movne	r0, r4
ffffaef0:	0affffee 	beq	ffffaeb0 <sm5011_sboot_output_cntl+0x54>
ffffaef4:	ebffffcb 	bl	ffffae28 <sm5011_write>
ffffaef8:	e2900000 	adds	r0, r0, #0
ffffaefc:	13a00001 	movne	r0, #1
ffffaf00:	eaffffeb 	b	ffffaeb4 <sm5011_sboot_output_cntl+0x58>
ffffaf04:	e28d1010 	add	r1, sp, #16
ffffaf08:	e3a03000 	mov	r3, #0
ffffaf0c:	e3a02007 	mov	r2, #7
ffffaf10:	e5613002 	strb	r3, [r1, #-2]!
ffffaf14:	eafffff6 	b	ffffaef4 <sm5011_sboot_output_cntl+0x98>

ffffaf18 <pmic_board_init>:
ffffaf18:	e3a03000 	mov	r3, #0
ffffaf1c:	e92d4007 	push	{r0, r1, r2, lr}
ffffaf20:	e3a0201b 	mov	r2, #27
ffffaf24:	e58d3000 	str	r3, [sp]
ffffaf28:	e3a0101c 	mov	r1, #28
ffffaf2c:	e3a00001 	mov	r0, #1
ffffaf30:	ebffff13 	bl	ffffab84 <i2c_gpio_init>
ffffaf34:	e3a030ff 	mov	r3, #255	; 0xff
ffffaf38:	e3a02023 	mov	r2, #35	; 0x23
ffffaf3c:	e3a01003 	mov	r1, #3
ffffaf40:	e3a00031 	mov	r0, #49	; 0x31
ffffaf44:	ebffffc4 	bl	ffffae5c <sm5011_sboot_output_cntl>
ffffaf48:	e3a030ff 	mov	r3, #255	; 0xff
ffffaf4c:	e3a0204b 	mov	r2, #75	; 0x4b
ffffaf50:	e3a01003 	mov	r1, #3
ffffaf54:	e3a0002e 	mov	r0, #46	; 0x2e
ffffaf58:	ebffffbf 	bl	ffffae5c <sm5011_sboot_output_cntl>
ffffaf5c:	e3a030ff 	mov	r3, #255	; 0xff
ffffaf60:	e3a0204b 	mov	r2, #75	; 0x4b
ffffaf64:	e3a01003 	mov	r1, #3
ffffaf68:	e3a00037 	mov	r0, #55	; 0x37
ffffaf6c:	ebffffba 	bl	ffffae5c <sm5011_sboot_output_cntl>
ffffaf70:	e3000708 	movw	r0, #1800	; 0x708
ffffaf74:	ebffff94 	bl	ffffadcc <sm5011_get_ldo_vol>
ffffaf78:	e6ef2070 	uxtb	r2, r0
ffffaf7c:	e3a030ff 	mov	r3, #255	; 0xff
ffffaf80:	e3a01003 	mov	r1, #3
ffffaf84:	e3a00058 	mov	r0, #88	; 0x58
ffffaf88:	e28dd00c 	add	sp, sp, #12
ffffaf8c:	e49de004 	pop	{lr}		; (ldr lr, [sp], #4)
ffffaf90:	eaffffb1 	b	ffffae5c <sm5011_sboot_output_cntl>
	...

ffffafa0 <smc_call>:
ffffafa0:	e1600070 	smc	0
ffffafa4:	e12fff1e 	bx	lr

ffffafa8 <tzpc_set_ddr>:
ffffafa8:	e59f000c 	ldr	r0, [pc, #12]	; ffffafbc <tzpc_set_ddr+0x14>
ffffafac:	e3a03000 	mov	r3, #0
ffffafb0:	e1a02003 	mov	r2, r3
ffffafb4:	e1a01003 	mov	r1, r3
ffffafb8:	eafffff8 	b	ffffafa0 <smc_call>
ffffafbc:	82000004 	.word	0x82000004

ffffafc0 <plat_load>:
ffffafc0:	e92d401f 	push	{r0, r1, r2, r3, r4, lr}
ffffafc4:	e3e03000 	mvn	r3, #0
ffffafc8:	e59f0038 	ldr	r0, [pc, #56]	; ffffb008 <plat_load+0x48>
ffffafcc:	e1a0100d 	mov	r1, sp
ffffafd0:	e553200e 	ldrb	r2, [r3, #-14]
ffffafd4:	e202200f 	and	r2, r2, #15
ffffafd8:	e58d2000 	str	r2, [sp]
ffffafdc:	e51320ef 	ldr	r2, [r3, #-239]	; 0xef
ffffafe0:	e58d2004 	str	r2, [sp, #4]
ffffafe4:	e51330eb 	ldr	r3, [r3, #-235]	; 0xeb
ffffafe8:	e58d3008 	str	r3, [sp, #8]
ffffafec:	e59f3018 	ldr	r3, [pc, #24]	; ffffb00c <plat_load+0x4c>
ffffaff0:	e58d300c 	str	r3, [sp, #12]
ffffaff4:	e3a03000 	mov	r3, #0
ffffaff8:	e1a02003 	mov	r2, r3
ffffaffc:	ebffffe7 	bl	ffffafa0 <smc_call>
ffffb000:	e28dd014 	add	sp, sp, #20
ffffb004:	e49df004 	pop	{pc}		; (ldr pc, [sp], #4)
ffffb008:	82000002 	.word	0x82000002
ffffb00c:	ffff9ef0 	.word	0xffff9ef0

ffffb010 <build_information>:
ffffb010:	e59f2008 	ldr	r2, [pc, #8]	; ffffb020 <build_information+0x10>
ffffb014:	e59f1008 	ldr	r1, [pc, #8]	; ffffb024 <build_information+0x14>
ffffb018:	e59f0008 	ldr	r0, [pc, #8]	; ffffb028 <build_information+0x18>
ffffb01c:	eafff880 	b	ffff9224 <printf>
ffffb020:	ffffb812 	.word	0xffffb812
ffffb024:	ffffb81b 	.word	0xffffb81b
ffffb028:	ffffb827 	.word	0xffffb827

ffffb02c <rand_r>:
ffffb02c:	e5903000 	ldr	r3, [r0]
ffffb030:	e0233683 	eor	r3, r3, r3, lsl #13
ffffb034:	e02338a3 	eor	r3, r3, r3, lsr #17
ffffb038:	e0233283 	eor	r3, r3, r3, lsl #5
ffffb03c:	e5803000 	str	r3, [r0]
ffffb040:	e1a00003 	mov	r0, r3
ffffb044:	e12fff1e 	bx	lr

ffffb048 <rand>:
ffffb048:	e59f0000 	ldr	r0, [pc]	; ffffb050 <rand+0x8>
ffffb04c:	eafffff6 	b	ffffb02c <rand_r>
ffffb050:	ffffd0e4 	.word	0xffffd0e4

ffffb054 <srand>:
ffffb054:	e59f3004 	ldr	r3, [pc, #4]	; ffffb060 <srand+0xc>
ffffb058:	e5830000 	str	r0, [r3]
ffffb05c:	e12fff1e 	bx	lr
ffffb060:	ffffd0e4 	.word	0xffffd0e4

ffffb064 <rand_ul>:
ffffb064:	e92d4010 	push	{r4, lr}
ffffb068:	ebfffff6 	bl	ffffb048 <rand>
ffffb06c:	e1a02000 	mov	r2, r0
ffffb070:	ebfffff4 	bl	ffffb048 <rand>
ffffb074:	e1820800 	orr	r0, r2, r0, lsl #16
ffffb078:	e8bd8010 	pop	{r4, pc}

ffffb07c <simple_memtest>:
ffffb07c:	e92d4ff7 	push	{r0, r1, r2, r4, r5, r6, r7, r8, r9, sl, fp, lr}
ffffb080:	e59f01f8 	ldr	r0, [pc, #504]	; ffffb280 <simple_memtest+0x204>
ffffb084:	ebfff866 	bl	ffff9224 <printf>
ffffb088:	e59f21f4 	ldr	r2, [pc, #500]	; ffffb284 <simple_memtest+0x208>
ffffb08c:	e3a03601 	mov	r3, #1048576	; 0x100000
ffffb090:	e59f01f0 	ldr	r0, [pc, #496]	; ffffb288 <simple_memtest+0x20c>
ffffb094:	e3a01205 	mov	r1, #1342177280	; 0x50000000
ffffb098:	ebfff861 	bl	ffff9224 <printf>
ffffb09c:	e59f01e8 	ldr	r0, [pc, #488]	; ffffb28c <simple_memtest+0x210>
ffffb0a0:	ebfff85f 	bl	ffff9224 <printf>
ffffb0a4:	e59f01e4 	ldr	r0, [pc, #484]	; ffffb290 <simple_memtest+0x214>
ffffb0a8:	ebfff85d 	bl	ffff9224 <printf>
ffffb0ac:	e59f21d0 	ldr	r2, [pc, #464]	; ffffb284 <simple_memtest+0x208>
ffffb0b0:	e3a03205 	mov	r3, #1342177280	; 0x50000000
ffffb0b4:	e5833000 	str	r3, [r3]
ffffb0b8:	e2833004 	add	r3, r3, #4
ffffb0bc:	e1530002 	cmp	r3, r2
ffffb0c0:	1afffffb 	bne	ffffb0b4 <simple_memtest+0x38>
ffffb0c4:	e59f01c8 	ldr	r0, [pc, #456]	; ffffb294 <simple_memtest+0x218>
ffffb0c8:	e3e0423b 	mvn	r4, #-1342177277	; 0xb0000003
ffffb0cc:	e59f81c4 	ldr	r8, [pc, #452]	; ffffb298 <simple_memtest+0x21c>
ffffb0d0:	ebfff853 	bl	ffff9224 <printf>
ffffb0d4:	e59fa1c0 	ldr	sl, [pc, #448]	; ffffb29c <simple_memtest+0x220>
ffffb0d8:	e59f01c0 	ldr	r0, [pc, #448]	; ffffb2a0 <simple_memtest+0x224>
ffffb0dc:	e59f91c0 	ldr	r9, [pc, #448]	; ffffb2a4 <simple_memtest+0x228>
ffffb0e0:	ebfff84f 	bl	ffff9224 <printf>
ffffb0e4:	e5b46004 	ldr	r6, [r4, #4]!
ffffb0e8:	e3a05000 	mov	r5, #0
ffffb0ec:	e3a0b001 	mov	fp, #1
ffffb0f0:	e1a07004 	mov	r7, r4
ffffb0f4:	e1a0351b 	lsl	r3, fp, r5
ffffb0f8:	e0066003 	and	r6, r6, r3
ffffb0fc:	e0077003 	and	r7, r7, r3
ffffb100:	e1560007 	cmp	r6, r7
ffffb104:	0a00000b 	beq	ffffb138 <simple_memtest+0xbc>
ffffb108:	e1a00008 	mov	r0, r8
ffffb10c:	ebfff844 	bl	ffff9224 <printf>
ffffb110:	e5943000 	ldr	r3, [r4]
ffffb114:	e1a02007 	mov	r2, r7
ffffb118:	e58d4000 	str	r4, [sp]
ffffb11c:	e1a01005 	mov	r1, r5
ffffb120:	e58d3004 	str	r3, [sp, #4]
ffffb124:	e1a0000a 	mov	r0, sl
ffffb128:	e1a03006 	mov	r3, r6
ffffb12c:	ebfff83c 	bl	ffff9224 <printf>
ffffb130:	e1a00008 	mov	r0, r8
ffffb134:	ebfff83a 	bl	ffff9224 <printf>
ffffb138:	e2855001 	add	r5, r5, #1
ffffb13c:	e3550020 	cmp	r5, #32
ffffb140:	1affffeb 	bne	ffffb0f4 <simple_memtest+0x78>
ffffb144:	e1540009 	cmp	r4, r9
ffffb148:	1affffe5 	bne	ffffb0e4 <simple_memtest+0x68>
ffffb14c:	e59f0154 	ldr	r0, [pc, #340]	; ffffb2a8 <simple_memtest+0x22c>
ffffb150:	ebfff833 	bl	ffff9224 <printf>
ffffb154:	e59f0150 	ldr	r0, [pc, #336]	; ffffb2ac <simple_memtest+0x230>
ffffb158:	ebfff831 	bl	ffff9224 <printf>
ffffb15c:	e59f014c 	ldr	r0, [pc, #332]	; ffffb2b0 <simple_memtest+0x234>
ffffb160:	ebfff82f 	bl	ffff9224 <printf>
ffffb164:	e59f0124 	ldr	r0, [pc, #292]	; ffffb290 <simple_memtest+0x214>
ffffb168:	ebfff82d 	bl	ffff9224 <printf>
ffffb16c:	e59f1110 	ldr	r1, [pc, #272]	; ffffb284 <simple_memtest+0x208>
ffffb170:	e3a03205 	mov	r3, #1342177280	; 0x50000000
ffffb174:	e3a00001 	mov	r0, #1
ffffb178:	e7e42153 	ubfx	r2, r3, #2, #5
ffffb17c:	e1a02210 	lsl	r2, r0, r2
ffffb180:	e4832004 	str	r2, [r3], #4
ffffb184:	e1530001 	cmp	r3, r1
ffffb188:	1afffffa 	bne	ffffb178 <simple_memtest+0xfc>
ffffb18c:	e59f0100 	ldr	r0, [pc, #256]	; ffffb294 <simple_memtest+0x218>
ffffb190:	e3a04205 	mov	r4, #1342177280	; 0x50000000
ffffb194:	e59f7118 	ldr	r7, [pc, #280]	; ffffb2b4 <simple_memtest+0x238>
ffffb198:	ebfff821 	bl	ffff9224 <printf>
ffffb19c:	e59f50e0 	ldr	r5, [pc, #224]	; ffffb284 <simple_memtest+0x208>
ffffb1a0:	e3a06001 	mov	r6, #1
ffffb1a4:	e59f00f4 	ldr	r0, [pc, #244]	; ffffb2a0 <simple_memtest+0x224>
ffffb1a8:	ebfff81d 	bl	ffff9224 <printf>
ffffb1ac:	e5942000 	ldr	r2, [r4]
ffffb1b0:	e7e43154 	ubfx	r3, r4, #2, #5
ffffb1b4:	e1520316 	cmp	r2, r6, lsl r3
ffffb1b8:	0a000002 	beq	ffffb1c8 <simple_memtest+0x14c>
ffffb1bc:	e1a01004 	mov	r1, r4
ffffb1c0:	e1a00007 	mov	r0, r7
ffffb1c4:	ebfff816 	bl	ffff9224 <printf>
ffffb1c8:	e2844004 	add	r4, r4, #4
ffffb1cc:	e1540005 	cmp	r4, r5
ffffb1d0:	1afffff5 	bne	ffffb1ac <simple_memtest+0x130>
ffffb1d4:	e59f00cc 	ldr	r0, [pc, #204]	; ffffb2a8 <simple_memtest+0x22c>
ffffb1d8:	ebfff811 	bl	ffff9224 <printf>
ffffb1dc:	e59f00c8 	ldr	r0, [pc, #200]	; ffffb2ac <simple_memtest+0x230>
ffffb1e0:	ebfff80f 	bl	ffff9224 <printf>
ffffb1e4:	e59f00cc 	ldr	r0, [pc, #204]	; ffffb2b8 <simple_memtest+0x23c>
ffffb1e8:	ebfff80d 	bl	ffff9224 <printf>
ffffb1ec:	e59f009c 	ldr	r0, [pc, #156]	; ffffb290 <simple_memtest+0x214>
ffffb1f0:	ebfff80b 	bl	ffff9224 <printf>
ffffb1f4:	e59f1088 	ldr	r1, [pc, #136]	; ffffb284 <simple_memtest+0x208>
ffffb1f8:	e3a03205 	mov	r3, #1342177280	; 0x50000000
ffffb1fc:	e3a00001 	mov	r0, #1
ffffb200:	e7e42153 	ubfx	r2, r3, #2, #5
ffffb204:	e1e02210 	mvn	r2, r0, lsl r2
ffffb208:	e4832004 	str	r2, [r3], #4
ffffb20c:	e1530001 	cmp	r3, r1
ffffb210:	1afffffa 	bne	ffffb200 <simple_memtest+0x184>
ffffb214:	e59f0078 	ldr	r0, [pc, #120]	; ffffb294 <simple_memtest+0x218>
ffffb218:	e3a04205 	mov	r4, #1342177280	; 0x50000000
ffffb21c:	e59f7090 	ldr	r7, [pc, #144]	; ffffb2b4 <simple_memtest+0x238>
ffffb220:	ebfff7ff 	bl	ffff9224 <printf>
ffffb224:	e59f5058 	ldr	r5, [pc, #88]	; ffffb284 <simple_memtest+0x208>
ffffb228:	e3a06001 	mov	r6, #1
ffffb22c:	e59f006c 	ldr	r0, [pc, #108]	; ffffb2a0 <simple_memtest+0x224>
ffffb230:	ebfff7fb 	bl	ffff9224 <printf>
ffffb234:	e7e43154 	ubfx	r3, r4, #2, #5
ffffb238:	e5942000 	ldr	r2, [r4]
ffffb23c:	e1e03316 	mvn	r3, r6, lsl r3
ffffb240:	e1520003 	cmp	r2, r3
ffffb244:	0a000002 	beq	ffffb254 <simple_memtest+0x1d8>
ffffb248:	e1a01004 	mov	r1, r4
ffffb24c:	e1a00007 	mov	r0, r7
ffffb250:	ebfff7f3 	bl	ffff9224 <printf>
ffffb254:	e2844004 	add	r4, r4, #4
ffffb258:	e1540005 	cmp	r4, r5
ffffb25c:	1afffff4 	bne	ffffb234 <simple_memtest+0x1b8>
ffffb260:	e59f0040 	ldr	r0, [pc, #64]	; ffffb2a8 <simple_memtest+0x22c>
ffffb264:	ebfff7ee 	bl	ffff9224 <printf>
ffffb268:	e59f003c 	ldr	r0, [pc, #60]	; ffffb2ac <simple_memtest+0x230>
ffffb26c:	ebfff7ec 	bl	ffff9224 <printf>
ffffb270:	e59f0044 	ldr	r0, [pc, #68]	; ffffb2bc <simple_memtest+0x240>
ffffb274:	e28dd00c 	add	sp, sp, #12
ffffb278:	e8bd4ff0 	pop	{r4, r5, r6, r7, r8, r9, sl, fp, lr}
ffffb27c:	eafff7e8 	b	ffff9224 <printf>
ffffb280:	ffffb851 	.word	0xffffb851
ffffb284:	50100000 	.word	0x50100000
ffffb288:	ffffb88d 	.word	0xffffb88d
ffffb28c:	ffffb8b9 	.word	0xffffb8b9
ffffb290:	ffffb8c7 	.word	0xffffb8c7
ffffb294:	ffffb929 	.word	0xffffb929
ffffb298:	ffffb8d9 	.word	0xffffb8d9
ffffb29c:	ffffb902 	.word	0xffffb902
ffffb2a0:	ffffb8cf 	.word	0xffffb8cf
ffffb2a4:	500ffffc 	.word	0x500ffffc
ffffb2a8:	ffffb927 	.word	0xffffb927
ffffb2ac:	ffffb931 	.word	0xffffb931
ffffb2b0:	ffffb93c 	.word	0xffffb93c
ffffb2b4:	ffffb94a 	.word	0xffffb94a
ffffb2b8:	ffffb95c 	.word	0xffffb95c
ffffb2bc:	ffffb96a 	.word	0xffffb96a

Disassembly of section .text.startup:

ffffb2c0 <main>:
ffffb2c0:	e59f3038 	ldr	r3, [pc, #56]	; ffffb300 <main+0x40>
ffffb2c4:	e92d4010 	push	{r4, lr}
ffffb2c8:	e5933000 	ldr	r3, [r3]
ffffb2cc:	e59300f4 	ldr	r0, [r3, #244]	; 0xf4
ffffb2d0:	ebfff701 	bl	ffff8edc <serial_init>
ffffb2d4:	ebfffeb3 	bl	ffffada8 <pmic_initialize>
ffffb2d8:	ebfffc54 	bl	ffffa430 <pmu_initialize>
ffffb2dc:	ebffff31 	bl	ffffafa8 <tzpc_set_ddr>
ffffb2e0:	ebfff6a6 	bl	ffff8d80 <clock_initialize>
ffffb2e4:	ebfff67a 	bl	ffff8cd4 <clock_information>
ffffb2e8:	e3a00000 	mov	r0, #0
ffffb2ec:	ebfffc17 	bl	ffffa350 <memory_initialize>
ffffb2f0:	ebfff677 	bl	ffff8cd4 <clock_information>
ffffb2f4:	ebffff60 	bl	ffffb07c <simple_memtest>
ffffb2f8:	e8bd4010 	pop	{r4, lr}
ffffb2fc:	eaffff2f 	b	ffffafc0 <plat_load>
ffffb300:	ffffd0e0 	.word	0xffffd0e0
