
Allocating common symbols
Common symbol       size              file

g_cycle_period_ps   0x4               obj/armv7_pmu.o
mword8              0x4               obj/main.o
mword16             0x4               obj/main.o
g_ddr_info          0x18              obj/memory.o

Memory Configuration

Name             Origin             Length             Attributes
*default*        0x0000000000000000 0xffffffffffffffff

Linker script and memory map

LOAD obj/startup.o
LOAD obj/libnx.o
LOAD obj/libarmv7.o
LOAD obj/libplat.o
LOAD obj/armv7_pmu.o
LOAD obj/delay.o
LOAD obj/pll.o
LOAD obj/cmu.o
LOAD obj/clock.o
LOAD obj/serial.o
LOAD obj/printf.o
LOAD obj/dctrl.o
LOAD obj/dphy.o
LOAD obj/ddr3_sdram.o
LOAD obj/efuse.o
LOAD obj/memory.o
LOAD obj/pmu.o
LOAD obj/gpio.o
LOAD obj/i2c_gpio.o
LOAD obj/asv.o
LOAD obj/pmic.o
LOAD obj/sm5011.o
LOAD obj/board_vtk.o
LOAD obj/smc_entry.o
LOAD obj/tz.o
LOAD obj/plat_load.o
LOAD obj/build_info.o
LOAD obj/main.o
START GROUP
END GROUP
                0x00000000ffff8000                . = 0xffff8000
                0x00000000ffff8000                . = ALIGN (0x4)

.text           0x00000000ffff8000     0x307c
 obj/startup.o(.text)
 .text          0x00000000ffff8000       0x60 obj/startup.o
                0x00000000ffff8000                vectors
 *(.init.text)
 *(.init.data)
 *(.init.code)
 *(.text)
 .text          0x00000000ffff8060      0x1c8 obj/libnx.o
                0x00000000ffff8060                memcpy
                0x00000000ffff8080                memset
                0x00000000ffff809c                memcmp
                0x00000000ffff80cc                abs
                0x00000000ffff80d8                round_up
                0x00000000ffff80f8                get_quotient
                0x00000000ffff819c                get_remainder
 *fill*         0x00000000ffff8228       0x18 
 .text          0x00000000ffff8240       0xa8 obj/libarmv7.o
                0x00000000ffff8240                set_nonsecure_mode
                0x00000000ffff8250                set_secure_mode
                0x00000000ffff8260                get_secure_status
                0x00000000ffff8270                armv7_get_cpuid
                0x00000000ffff8280                armv7_get_mpidr
                0x00000000ffff8290                armv7_set_auxctrl
                0x00000000ffff82a0                armv7_get_auxctrl
                0x00000000ffff82b0                armv7_get_scr
                0x00000000ffff82c0                armv7_set_scr
                0x00000000ffff82d0                set_mon_mode
                0x00000000ffff82e0                set_svc_mode
 *fill*         0x00000000ffff82e8        0x8 
 .text          0x00000000ffff82f0       0x18 obj/libplat.o
                0x00000000ffff82f0                bl1_get_fnptr
                0x00000000ffff8300                bl1_set_fnptr
 .text          0x00000000ffff8308      0x140 obj/armv7_pmu.o
                0x00000000ffff8308                pmu_get_count
                0x00000000ffff8310                pmu_counter_deinitialize
                0x00000000ffff8334                pmu_delay_us
                0x00000000ffff83fc                armv7_pmu_init
 .text          0x00000000ffff8448       0x6c obj/delay.o
                0x00000000ffff8448                udelay
                0x00000000ffff8498                mdelay
 .text          0x00000000ffff84b4      0x33c obj/pll.o
                0x00000000ffff84f0                pll_set_oscmux
                0x00000000ffff850c                clock_is_stable
                0x00000000ffff8574                get_pll_lock
                0x00000000ffff8588                get_pll_freq
                0x00000000ffff8628                get_pre_pll_freq
                0x00000000ffff86b8                nx_change_pll
                0x00000000ffff8758                pll_initialize
 .text          0x00000000ffff87f0      0x4f0 obj/cmu.o
                0x00000000ffff87f0                get_clk_priv
                0x00000000ffff8920                get_optimal_div
                0x00000000ffff894c                get_src_mux
                0x00000000ffff8960                cmu_set_rate
                0x00000000ffff8ab4                cmu_get_rate
                0x00000000ffff8b28                cmu_clk_enable
                0x00000000ffff8b94                cmu_clk_divstop
                0x00000000ffff8be8                cmu_clkgrp_enable
 .text          0x00000000ffff8ce0      0x1b8 obj/clock.o
                0x00000000ffff8ce0                clock_information
                0x00000000ffff8d8c                clock_initialize
 .text          0x00000000ffff8e98      0x1e0 obj/serial.o
                0x00000000ffff8e98                serial_set_baudrate
                0x00000000ffff8ee8                serial_init
                0x00000000ffff8fb4                serial_is_tx_empty
                0x00000000ffff8fcc                serial_is_rx_empty
                0x00000000ffff8fe8                serial_getc
                0x00000000ffff9010                serial_putc
                0x00000000ffff9034                serial_is_busy
                0x00000000ffff904c                serial_is_uart_tx_done
 .text          0x00000000ffff9078      0x370 obj/printf.o
                0x00000000ffff9230                printf
                0x00000000ffff93d8                empty_printf
 .text          0x00000000ffff93e8      0x418 obj/dctrl.o
                0x00000000ffff93e8                host_cmd_load_mr
                0x00000000ffff9444                host_cmd_load
                0x00000000ffff9470                ctrl_set_init_values
 .text          0x00000000ffff9800      0x6f8 obj/dphy.o
                0x00000000ffff9800                hw_write_leveling
                0x00000000ffff9880                hw_bit_leveling_information
                0x00000000ffff9b20                hw_bit_leveling
                0x00000000ffff9c0c                phy_set_init_values
 .text          0x00000000ffff9ef8      0x43c obj/ddr3_sdram.o
                0x00000000ffff9ef8                enter_self_refresh
                0x00000000ffffa004                exit_self_refresh
                0x00000000ffffa0ec                mem_init_seq_ddr3
                0x00000000ffffa30c                ddr3_initialize
 .text          0x00000000ffffa334       0x24 obj/efuse.o
                0x00000000ffffa334                efuse_get_bootcfg
                0x00000000ffffa344                efuse_get_ecid
 .text          0x00000000ffffa358       0xc8 obj/memory.o
                0x00000000ffffa358                memory_initialize
 .text          0x00000000ffffa420       0x30 obj/pmu.o
                0x00000000ffffa420                pmu_blk_pwrup
                0x00000000ffffa438                pmu_initialize
 .text          0x00000000ffffa450      0x194 obj/gpio.o
                0x00000000ffffa450                gpio_set_outenb
                0x00000000ffffa498                gpio_set_output
                0x00000000ffffa4c4                gpio_get_pad
                0x00000000ffffa4e4                gpio_set_pullenb
                0x00000000ffffa52c                gpio_set_pull
                0x00000000ffffa578                gpio_set_alt_function
                0x00000000ffffa5d0                nx_gpio_set_alt
 .text          0x00000000ffffa5e4      0x71c obj/i2c_gpio.o
                0x00000000ffffa964                i2c_gpio_read
                0x00000000ffffaa98                i2c_gpio_write
                0x00000000ffffab8c                i2c_gpio_init
                0x00000000ffffac50                i2c_gpio_deinit
 .text          0x00000000ffffad00       0xb0 obj/asv.o
                0x00000000ffffad00                asv_get_core_vol
                0x00000000ffffad5c                asv_get_arm_vol
 .text          0x00000000ffffadb0        0x4 obj/pmic.o
                0x00000000ffffadb0                pmic_initialize
 .text          0x00000000ffffadb4      0x16c obj/sm5011.o
                0x00000000ffffadb4                sm5011_get_buck_vol
                0x00000000ffffadd4                sm5011_get_ldo_vol
                0x00000000ffffae00                sm5011_read
                0x00000000ffffae30                sm5011_write
                0x00000000ffffae64                sm5011_sboot_output_cntl
 .text          0x00000000ffffaf20       0x7c obj/board_vtk.o
                0x00000000ffffaf20                pmic_board_init
 *fill*         0x00000000ffffaf9c        0x4 
 .text          0x00000000ffffafa0        0x8 obj/smc_entry.o
                0x00000000ffffafa0                smc_call
 .text          0x00000000ffffafa8       0x18 obj/tz.o
                0x00000000ffffafa8                tzpc_set_ddr
 .text          0x00000000ffffafc0       0x50 obj/plat_load.o
                0x00000000ffffafc0                plat_load
 .text          0x00000000ffffb010       0x1c obj/build_info.o
                0x00000000ffffb010                build_information
 .text          0x00000000ffffb02c       0x50 obj/main.o
                0x00000000ffffb02c                rand_r
                0x00000000ffffb048                rand
                0x00000000ffffb054                srand
                0x00000000ffffb064                rand_ul

.glue_7         0x00000000ffffb07c        0x0
 .glue_7        0x00000000ffffb07c        0x0 linker stubs

.glue_7t        0x00000000ffffb07c        0x0
 .glue_7t       0x00000000ffffb07c        0x0 linker stubs

.vfp11_veneer   0x00000000ffffb07c        0x0
 .vfp11_veneer  0x00000000ffffb07c        0x0 linker stubs

.v4_bx          0x00000000ffffb07c        0x0
 .v4_bx         0x00000000ffffb07c        0x0 linker stubs

.iplt           0x00000000ffffb07c        0x0
 .iplt          0x00000000ffffb07c        0x0 obj/startup.o

.text.startup   0x00000000ffffb07c       0x48
 .text.startup  0x00000000ffffb07c       0x48 obj/main.o
                0x00000000ffffb07c                main
                0x00000000ffffb0c4                . = ALIGN (0x4)

.rodata         0x00000000ffffb0c4      0x54d
 *(.rodata*)
 .rodata        0x00000000ffffb0c4       0x14 obj/pll.o
 .rodata.str1.1
                0x00000000ffffb0d8       0x9f obj/clock.o
 .rodata.str1.1
                0x00000000ffffb177        0x7 obj/printf.o
 .rodata.str1.1
                0x00000000ffffb17e      0x1ea obj/dphy.o
 .rodata.str1.1
                0x00000000ffffb368       0x37 obj/memory.o
 .rodata        0x00000000ffffb39f       0x3e obj/i2c_gpio.o
 .rodata.str1.1
                0x00000000ffffb3dd      0x1f5 obj/i2c_gpio.o
                                        0x223 (size before relaxing)
 .rodata.str1.1
                0x00000000ffffb5d2       0x3f obj/build_info.o

.rel.dyn        0x00000000ffffb614        0x0
 .rel.iplt      0x00000000ffffb614        0x0 obj/startup.o
                0x00000000ffffb614                . = ALIGN (0x4)

.data           0x00000000ffffb614     0x1740
 *(.data*)
 .data          0x00000000ffffb614        0x0 obj/startup.o
 .data          0x00000000ffffb614        0x0 obj/libnx.o
 .data          0x00000000ffffb614        0x0 obj/libarmv7.o
 .data          0x00000000ffffb614        0x0 obj/libplat.o
 .data          0x00000000ffffb614        0x0 obj/armv7_pmu.o
 .data          0x00000000ffffb614        0x0 obj/delay.o
 .data          0x00000000ffffb614        0x0 obj/pll.o
 .data          0x00000000ffffb614     0x1620 obj/cmu.o
                0x00000000ffffb614                cmu_src
                0x00000000ffffbbe4                cmu_sys
                0x00000000ffffc9f4                cmu_usb
                0x00000000ffffca54                cmu_cpu
                0x00000000ffffcb8c                cmu_ddr
 .data          0x00000000ffffcc34        0x0 obj/clock.o
 .data          0x00000000ffffcc34       0x38 obj/serial.o
 .data          0x00000000ffffcc6c        0x0 obj/printf.o
 .data          0x00000000ffffcc6c        0x0 obj/dctrl.o
 .data          0x00000000ffffcc6c        0x0 obj/dphy.o
 .data          0x00000000ffffcc6c        0x0 obj/ddr3_sdram.o
 .data          0x00000000ffffcc6c        0x0 obj/efuse.o
 .data          0x00000000ffffcc6c        0x0 obj/memory.o
 .data          0x00000000ffffcc6c        0x0 obj/pmu.o
 .data          0x00000000ffffcc6c        0x0 obj/gpio.o
 .data          0x00000000ffffcc6c        0x0 obj/i2c_gpio.o
 .data          0x00000000ffffcc6c       0xe0 obj/asv.o
                0x00000000ffffcc6c                core_v_tables
                0x00000000ffffccdc                arm_v_tables
 .data          0x00000000ffffcd4c        0x0 obj/pmic.o
 .data          0x00000000ffffcd4c        0x0 obj/sm5011.o
 .data          0x00000000ffffcd4c        0x0 obj/board_vtk.o
 .data          0x00000000ffffcd4c        0x0 obj/smc_entry.o
 .data          0x00000000ffffcd4c        0x0 obj/tz.o
 .data          0x00000000ffffcd4c        0x0 obj/plat_load.o
 .data          0x00000000ffffcd4c        0x0 obj/build_info.o
 .data          0x00000000ffffcd4c        0x8 obj/main.o
                0x00000000ffffcd50                g_nsih

.igot.plt       0x00000000ffffcd54        0x0
 .igot.plt      0x00000000ffffcd54        0x0 obj/startup.o
                0x00000000ffffcd54                . = ALIGN (0x4)

.got
 *(.got)
                0x00000000ffffcd54                _end = .
                0x00000000ffffcd54                __bss_start__ = .

.bss_start      0x00000000ffffcd54        0x0
 *(.__bss_start)
                0x00000000ffffcd54                __bss_base = .

.bss            0x00000000ffffcd54       0x34
 *(.bss*)
 .bss           0x00000000ffffcd54        0x0 obj/startup.o
 .bss           0x00000000ffffcd54        0x0 obj/libnx.o
 .bss           0x00000000ffffcd54        0x0 obj/libarmv7.o
 .bss           0x00000000ffffcd54        0x0 obj/libplat.o
 .bss           0x00000000ffffcd54        0x0 obj/armv7_pmu.o
 .bss           0x00000000ffffcd54        0x0 obj/delay.o
 .bss           0x00000000ffffcd54        0x0 obj/pll.o
 .bss           0x00000000ffffcd54        0x0 obj/cmu.o
 .bss           0x00000000ffffcd54        0x0 obj/clock.o
 .bss           0x00000000ffffcd54        0x4 obj/serial.o
 .bss           0x00000000ffffcd58        0x0 obj/printf.o
 .bss           0x00000000ffffcd58        0x0 obj/dctrl.o
 .bss           0x00000000ffffcd58        0x4 obj/dphy.o
 .bss           0x00000000ffffcd5c        0x0 obj/ddr3_sdram.o
 .bss           0x00000000ffffcd5c        0x0 obj/efuse.o
 .bss           0x00000000ffffcd5c        0x0 obj/memory.o
 .bss           0x00000000ffffcd5c        0x0 obj/pmu.o
 .bss           0x00000000ffffcd5c        0x0 obj/gpio.o
 .bss           0x00000000ffffcd5c        0x8 obj/i2c_gpio.o
 .bss           0x00000000ffffcd64        0x0 obj/asv.o
 .bss           0x00000000ffffcd64        0x0 obj/pmic.o
 .bss           0x00000000ffffcd64        0x0 obj/sm5011.o
 .bss           0x00000000ffffcd64        0x0 obj/board_vtk.o
 .bss           0x00000000ffffcd64        0x0 obj/smc_entry.o
 .bss           0x00000000ffffcd64        0x0 obj/tz.o
 .bss           0x00000000ffffcd64        0x0 obj/plat_load.o
 .bss           0x00000000ffffcd64        0x0 obj/build_info.o
 .bss           0x00000000ffffcd64        0x0 obj/main.o
                0x00000000ffffcd64                . = ALIGN (0x4)
                0x00000000ffffcd64                __bss_limit = .
 COMMON         0x00000000ffffcd64        0x4 obj/armv7_pmu.o
                0x00000000ffffcd64                g_cycle_period_ps
 COMMON         0x00000000ffffcd68       0x18 obj/memory.o
                0x00000000ffffcd68                g_ddr_info
 COMMON         0x00000000ffffcd80        0x8 obj/main.o
                0x00000000ffffcd80                mword8
                0x00000000ffffcd84                mword16

.bss_end
 *(.__bss_end)
                0x00000000ffffcd88                __bss_end__ = .
OUTPUT(out/bl2-vtk.elf elf32-littlearm)

.ARM.attributes
                0x0000000000000000       0x3b
 .ARM.attributes
                0x0000000000000000       0x2b obj/startup.o
 .ARM.attributes
                0x000000000000002b       0x3f obj/libnx.o
 .ARM.attributes
                0x000000000000006a       0x2b obj/libarmv7.o
 .ARM.attributes
                0x0000000000000095       0x2b obj/libplat.o
 .ARM.attributes
                0x00000000000000c0       0x3f obj/armv7_pmu.o
 .ARM.attributes
                0x00000000000000ff       0x3f obj/delay.o
 .ARM.attributes
                0x000000000000013e       0x3f obj/pll.o
 .ARM.attributes
                0x000000000000017d       0x3f obj/cmu.o
 .ARM.attributes
                0x00000000000001bc       0x3f obj/clock.o
 .ARM.attributes
                0x00000000000001fb       0x3f obj/serial.o
 .ARM.attributes
                0x000000000000023a       0x3f obj/printf.o
 .ARM.attributes
                0x0000000000000279       0x3f obj/dctrl.o
 .ARM.attributes
                0x00000000000002b8       0x3f obj/dphy.o
 .ARM.attributes
                0x00000000000002f7       0x3f obj/ddr3_sdram.o
 .ARM.attributes
                0x0000000000000336       0x3f obj/efuse.o
 .ARM.attributes
                0x0000000000000375       0x3f obj/memory.o
 .ARM.attributes
                0x00000000000003b4       0x3f obj/pmu.o
 .ARM.attributes
                0x00000000000003f3       0x3f obj/gpio.o
 .ARM.attributes
                0x0000000000000432       0x3f obj/i2c_gpio.o
 .ARM.attributes
                0x0000000000000471       0x3f obj/asv.o
 .ARM.attributes
                0x00000000000004b0       0x3f obj/pmic.o
 .ARM.attributes
                0x00000000000004ef       0x3f obj/sm5011.o
 .ARM.attributes
                0x000000000000052e       0x3f obj/board_vtk.o
 .ARM.attributes
                0x000000000000056d       0x2b obj/smc_entry.o
 .ARM.attributes
                0x0000000000000598       0x3f obj/tz.o
 .ARM.attributes
                0x00000000000005d7       0x3f obj/plat_load.o
 .ARM.attributes
                0x0000000000000616       0x3f obj/build_info.o
 .ARM.attributes
                0x0000000000000655       0x3f obj/main.o

.comment        0x0000000000000000       0x7f
 .comment       0x0000000000000000       0x7f obj/libnx.o
                                         0x80 (size before relaxing)
 .comment       0x000000000000007f       0x80 obj/armv7_pmu.o
 .comment       0x000000000000007f       0x80 obj/delay.o
 .comment       0x000000000000007f       0x80 obj/pll.o
 .comment       0x000000000000007f       0x80 obj/cmu.o
 .comment       0x000000000000007f       0x80 obj/clock.o
 .comment       0x000000000000007f       0x80 obj/serial.o
 .comment       0x000000000000007f       0x80 obj/printf.o
 .comment       0x000000000000007f       0x80 obj/dctrl.o
 .comment       0x000000000000007f       0x80 obj/dphy.o
 .comment       0x000000000000007f       0x80 obj/ddr3_sdram.o
 .comment       0x000000000000007f       0x80 obj/efuse.o
 .comment       0x000000000000007f       0x80 obj/memory.o
 .comment       0x000000000000007f       0x80 obj/pmu.o
 .comment       0x000000000000007f       0x80 obj/gpio.o
 .comment       0x000000000000007f       0x80 obj/i2c_gpio.o
 .comment       0x000000000000007f       0x80 obj/asv.o
 .comment       0x000000000000007f       0x80 obj/pmic.o
 .comment       0x000000000000007f       0x80 obj/sm5011.o
 .comment       0x000000000000007f       0x80 obj/board_vtk.o
 .comment       0x000000000000007f       0x80 obj/tz.o
 .comment       0x000000000000007f       0x80 obj/plat_load.o
 .comment       0x000000000000007f       0x80 obj/build_info.o
 .comment       0x000000000000007f       0x80 obj/main.o

.debug_line     0x0000000000000000     0x1be6
 .debug_line    0x0000000000000000       0x58 obj/startup.o
 .debug_line    0x0000000000000058       0xb0 obj/libnx.o
 .debug_line    0x0000000000000108       0x5d obj/libarmv7.o
 .debug_line    0x0000000000000165       0x44 obj/libplat.o
 .debug_line    0x00000000000001a9       0x98 obj/armv7_pmu.o
 .debug_line    0x0000000000000241       0x63 obj/delay.o
 .debug_line    0x00000000000002a4      0x12e obj/pll.o
 .debug_line    0x00000000000003d2      0x1c8 obj/cmu.o
 .debug_line    0x000000000000059a       0xcf obj/clock.o
 .debug_line    0x0000000000000669      0x122 obj/serial.o
 .debug_line    0x000000000000078b      0x1a6 obj/printf.o
 .debug_line    0x0000000000000931      0x28e obj/dctrl.o
 .debug_line    0x0000000000000bbf      0x36c obj/dphy.o
 .debug_line    0x0000000000000f2b      0x1f7 obj/ddr3_sdram.o
 .debug_line    0x0000000000001122       0x88 obj/efuse.o
 .debug_line    0x00000000000011aa       0xfb obj/memory.o
 .debug_line    0x00000000000012a5       0x7b obj/pmu.o
 .debug_line    0x0000000000001320       0xd9 obj/gpio.o
 .debug_line    0x00000000000013f9      0x1fd obj/i2c_gpio.o
 .debug_line    0x00000000000015f6       0xc9 obj/asv.o
 .debug_line    0x00000000000016bf       0x7d obj/pmic.o
 .debug_line    0x000000000000173c       0xe0 obj/sm5011.o
 .debug_line    0x000000000000181c       0xbd obj/board_vtk.o
 .debug_line    0x00000000000018d9       0x49 obj/smc_entry.o
 .debug_line    0x0000000000001922       0x76 obj/tz.o
 .debug_line    0x0000000000001998       0x93 obj/plat_load.o
 .debug_line    0x0000000000001a2b       0x68 obj/build_info.o
 .debug_line    0x0000000000001a93      0x153 obj/main.o

.debug_info     0x0000000000000000     0xc7b3
 .debug_info    0x0000000000000000       0x7a obj/startup.o
 .debug_info    0x000000000000007a      0x31e obj/libnx.o
 .debug_info    0x0000000000000398       0x7f obj/libarmv7.o
 .debug_info    0x0000000000000417       0x7e obj/libplat.o
 .debug_info    0x0000000000000495      0x25d obj/armv7_pmu.o
 .debug_info    0x00000000000006f2       0x9c obj/delay.o
 .debug_info    0x000000000000078e      0xb78 obj/pll.o
 .debug_info    0x0000000000001306      0xedd obj/cmu.o
 .debug_info    0x00000000000021e3      0x859 obj/clock.o
 .debug_info    0x0000000000002a3c      0x937 obj/serial.o
 .debug_info    0x0000000000003373      0x5bf obj/printf.o
 .debug_info    0x0000000000003932      0xd76 obj/dctrl.o
 .debug_info    0x00000000000046a8     0x1528 obj/dphy.o
 .debug_info    0x0000000000005bd0      0xc59 obj/ddr3_sdram.o
 .debug_info    0x0000000000006829      0x853 obj/efuse.o
 .debug_info    0x000000000000707c      0x6c7 obj/memory.o
 .debug_info    0x0000000000007743      0x5f5 obj/pmu.o
 .debug_info    0x0000000000007d38      0xa08 obj/gpio.o
 .debug_info    0x0000000000008740     0x106e obj/i2c_gpio.o
 .debug_info    0x00000000000097ae      0x74b obj/asv.o
 .debug_info    0x0000000000009ef9      0x57f obj/pmic.o
 .debug_info    0x000000000000a478      0x800 obj/sm5011.o
 .debug_info    0x000000000000ac78      0x669 obj/board_vtk.o
 .debug_info    0x000000000000b2e1       0x85 obj/smc_entry.o
 .debug_info    0x000000000000b366      0x599 obj/tz.o
 .debug_info    0x000000000000b8ff      0x670 obj/plat_load.o
 .debug_info    0x000000000000bf6f       0xa4 obj/build_info.o
 .debug_info    0x000000000000c013      0x7a0 obj/main.o

.debug_abbrev   0x0000000000000000     0x28aa
 .debug_abbrev  0x0000000000000000       0x14 obj/startup.o
 .debug_abbrev  0x0000000000000014       0xfb obj/libnx.o
 .debug_abbrev  0x000000000000010f       0x14 obj/libarmv7.o
 .debug_abbrev  0x0000000000000123       0x14 obj/libplat.o
 .debug_abbrev  0x0000000000000137      0x168 obj/armv7_pmu.o
 .debug_abbrev  0x000000000000029f       0x9f obj/delay.o
 .debug_abbrev  0x000000000000033e      0x250 obj/pll.o
 .debug_abbrev  0x000000000000058e      0x2f8 obj/cmu.o
 .debug_abbrev  0x0000000000000886      0x193 obj/clock.o
 .debug_abbrev  0x0000000000000a19      0x271 obj/serial.o
 .debug_abbrev  0x0000000000000c8a      0x22c obj/printf.o
 .debug_abbrev  0x0000000000000eb6      0x273 obj/dctrl.o
 .debug_abbrev  0x0000000000001129      0x2bb obj/dphy.o
 .debug_abbrev  0x00000000000013e4      0x1f4 obj/ddr3_sdram.o
 .debug_abbrev  0x00000000000015d8      0x140 obj/efuse.o
 .debug_abbrev  0x0000000000001718      0x1a0 obj/memory.o
 .debug_abbrev  0x00000000000018b8      0x155 obj/pmu.o
 .debug_abbrev  0x0000000000001a0d      0x1d0 obj/gpio.o
 .debug_abbrev  0x0000000000001bdd      0x2d5 obj/i2c_gpio.o
 .debug_abbrev  0x0000000000001eb2      0x1ac obj/asv.o
 .debug_abbrev  0x000000000000205e      0x102 obj/pmic.o
 .debug_abbrev  0x0000000000002160      0x17f obj/sm5011.o
 .debug_abbrev  0x00000000000022df      0x12a obj/board_vtk.o
 .debug_abbrev  0x0000000000002409       0x14 obj/smc_entry.o
 .debug_abbrev  0x000000000000241d      0x10e obj/tz.o
 .debug_abbrev  0x000000000000252b      0x141 obj/plat_load.o
 .debug_abbrev  0x000000000000266c       0x6f obj/build_info.o
 .debug_abbrev  0x00000000000026db      0x1cf obj/main.o

.debug_aranges  0x0000000000000000      0x388
 .debug_aranges
                0x0000000000000000       0x20 obj/startup.o
 .debug_aranges
                0x0000000000000020       0x20 obj/libnx.o
 .debug_aranges
                0x0000000000000040       0x20 obj/libarmv7.o
 .debug_aranges
                0x0000000000000060       0x20 obj/libplat.o
 .debug_aranges
                0x0000000000000080       0x20 obj/armv7_pmu.o
 .debug_aranges
                0x00000000000000a0       0x20 obj/delay.o
 .debug_aranges
                0x00000000000000c0       0x20 obj/pll.o
 .debug_aranges
                0x00000000000000e0       0x20 obj/cmu.o
 .debug_aranges
                0x0000000000000100       0x20 obj/clock.o
 .debug_aranges
                0x0000000000000120       0x20 obj/serial.o
 .debug_aranges
                0x0000000000000140       0x20 obj/printf.o
 .debug_aranges
                0x0000000000000160       0x20 obj/dctrl.o
 .debug_aranges
                0x0000000000000180       0x20 obj/dphy.o
 .debug_aranges
                0x00000000000001a0       0x20 obj/ddr3_sdram.o
 .debug_aranges
                0x00000000000001c0       0x20 obj/efuse.o
 .debug_aranges
                0x00000000000001e0       0x20 obj/memory.o
 .debug_aranges
                0x0000000000000200       0x20 obj/pmu.o
 .debug_aranges
                0x0000000000000220       0x20 obj/gpio.o
 .debug_aranges
                0x0000000000000240       0x20 obj/i2c_gpio.o
 .debug_aranges
                0x0000000000000260       0x20 obj/asv.o
 .debug_aranges
                0x0000000000000280       0x20 obj/pmic.o
 .debug_aranges
                0x00000000000002a0       0x20 obj/sm5011.o
 .debug_aranges
                0x00000000000002c0       0x20 obj/board_vtk.o
 .debug_aranges
                0x00000000000002e0       0x20 obj/smc_entry.o
 .debug_aranges
                0x0000000000000300       0x20 obj/tz.o
 .debug_aranges
                0x0000000000000320       0x20 obj/plat_load.o
 .debug_aranges
                0x0000000000000340       0x20 obj/build_info.o
 .debug_aranges
                0x0000000000000360       0x28 obj/main.o

.debug_loc      0x0000000000000000     0x41ab
 .debug_loc     0x0000000000000000      0x6f0 obj/libnx.o
 .debug_loc     0x00000000000006f0       0x5d obj/armv7_pmu.o
 .debug_loc     0x000000000000074d       0x1f obj/delay.o
 .debug_loc     0x000000000000076c      0x4e9 obj/pll.o
 .debug_loc     0x0000000000000c55      0x793 obj/cmu.o
 .debug_loc     0x00000000000013e8       0xda obj/clock.o
 .debug_loc     0x00000000000014c2      0x12e obj/serial.o
 .debug_loc     0x00000000000015f0      0x69f obj/printf.o
 .debug_loc     0x0000000000001c8f      0x736 obj/dctrl.o
 .debug_loc     0x00000000000023c5      0xceb obj/dphy.o
 .debug_loc     0x00000000000030b0      0x260 obj/ddr3_sdram.o
 .debug_loc     0x0000000000003310       0x2e obj/efuse.o
 .debug_loc     0x000000000000333e       0x8d obj/memory.o
 .debug_loc     0x00000000000033cb       0x4c obj/pmu.o
 .debug_loc     0x0000000000003417      0x332 obj/gpio.o
 .debug_loc     0x0000000000003749      0x68d obj/i2c_gpio.o
 .debug_loc     0x0000000000003dd6       0xcc obj/asv.o
 .debug_loc     0x0000000000003ea2      0x2b6 obj/sm5011.o
 .debug_loc     0x0000000000004158       0x1f obj/board_vtk.o
 .debug_loc     0x0000000000004177       0x34 obj/main.o

.debug_str      0x0000000000000000     0x19ab
 .debug_str     0x0000000000000000      0x18d obj/libnx.o
                                        0x1c4 (size before relaxing)
 .debug_str     0x000000000000018d      0x13a obj/armv7_pmu.o
                                        0x273 (size before relaxing)
 .debug_str     0x00000000000002c7       0x1e obj/delay.o
                                        0x139 (size before relaxing)
 .debug_str     0x00000000000002e5      0x432 obj/pll.o
                                        0x615 (size before relaxing)
 .debug_str     0x0000000000000717      0x25e obj/cmu.o
                                        0x705 (size before relaxing)
 .debug_str     0x0000000000000975       0x45 obj/clock.o
                                        0x4cd (size before relaxing)
 .debug_str     0x00000000000009ba      0x16d obj/serial.o
                                        0x5e3 (size before relaxing)
 .debug_str     0x0000000000000b27       0x92 obj/printf.o
                                        0x1f7 (size before relaxing)
 .debug_str     0x0000000000000bb9      0x224 obj/dctrl.o
                                        0x67d (size before relaxing)
 .debug_str     0x0000000000000ddd      0x1f3 obj/dphy.o
                                        0x675 (size before relaxing)
 .debug_str     0x0000000000000fd0      0x1bd obj/ddr3_sdram.o
                                        0x670 (size before relaxing)
 .debug_str     0x000000000000118d      0x15e obj/efuse.o
                                        0x597 (size before relaxing)
 .debug_str     0x00000000000012eb       0x9e obj/memory.o
                                        0x4ea (size before relaxing)
 .debug_str     0x0000000000001389       0x3f obj/pmu.o
                                        0x465 (size before relaxing)
 .debug_str     0x00000000000013c8      0x1ea obj/gpio.o
                                        0x67e (size before relaxing)
 .debug_str     0x00000000000015b2      0x158 obj/i2c_gpio.o
                                        0x638 (size before relaxing)
 .debug_str     0x000000000000170a       0x6d obj/asv.o
                                        0x50f (size before relaxing)
 .debug_str     0x0000000000001777       0x38 obj/pmic.o
                                        0x45e (size before relaxing)
 .debug_str     0x00000000000017af       0x9b obj/sm5011.o
                                        0x504 (size before relaxing)
 .debug_str     0x000000000000184a       0x1b obj/board_vtk.o
                                        0x49d (size before relaxing)
 .debug_str     0x0000000000001865       0x1e obj/tz.o
                                        0x44d (size before relaxing)
 .debug_str     0x0000000000001883       0xb8 obj/plat_load.o
                                        0x4e7 (size before relaxing)
 .debug_str     0x000000000000193b       0x2b obj/build_info.o
                                        0x1a2 (size before relaxing)
 .debug_str     0x0000000000001966       0x45 obj/main.o
                                        0x508 (size before relaxing)

.debug_frame    0x0000000000000000      0xb7c
 .debug_frame   0x0000000000000000       0x98 obj/libnx.o
 .debug_frame   0x0000000000000098       0x60 obj/armv7_pmu.o
 .debug_frame   0x00000000000000f8       0x44 obj/delay.o
 .debug_frame   0x000000000000013c       0xfc obj/pll.o
 .debug_frame   0x0000000000000238       0xfc obj/cmu.o
 .debug_frame   0x0000000000000334       0x5c obj/clock.o
 .debug_frame   0x0000000000000390       0xac obj/serial.o
 .debug_frame   0x000000000000043c       0xc8 obj/printf.o
 .debug_frame   0x0000000000000504       0x78 obj/dctrl.o
 .debug_frame   0x000000000000057c       0xcc obj/dphy.o
 .debug_frame   0x0000000000000648       0x84 obj/ddr3_sdram.o
 .debug_frame   0x00000000000006cc       0x30 obj/efuse.o
 .debug_frame   0x00000000000006fc       0x2c obj/memory.o
 .debug_frame   0x0000000000000728       0x3c obj/pmu.o
 .debug_frame   0x0000000000000764       0x8c obj/gpio.o
 .debug_frame   0x00000000000007f0      0x194 obj/i2c_gpio.o
 .debug_frame   0x0000000000000984       0x48 obj/asv.o
 .debug_frame   0x00000000000009cc       0x20 obj/pmic.o
 .debug_frame   0x00000000000009ec       0x88 obj/sm5011.o
 .debug_frame   0x0000000000000a74       0x2c obj/board_vtk.o
 .debug_frame   0x0000000000000aa0       0x20 obj/tz.o
 .debug_frame   0x0000000000000ac0       0x28 obj/plat_load.o
 .debug_frame   0x0000000000000ae8       0x20 obj/build_info.o
 .debug_frame   0x0000000000000b08       0x74 obj/main.o

.debug_ranges   0x0000000000000000      0x448
 .debug_ranges  0x0000000000000000       0x30 obj/pll.o
 .debug_ranges  0x0000000000000030       0x68 obj/serial.o
 .debug_ranges  0x0000000000000098       0xb0 obj/printf.o
 .debug_ranges  0x0000000000000148       0xb8 obj/dctrl.o
 .debug_ranges  0x0000000000000200      0x1b0 obj/dphy.o
 .debug_ranges  0x00000000000003b0       0x80 obj/i2c_gpio.o
 .debug_ranges  0x0000000000000430       0x18 obj/main.o

Cross Reference Table

Symbol                                            File
__bss_end__                                       obj/startup.o
__bss_start__                                     obj/startup.o
abs                                               obj/libnx.o
arm_v_tables                                      obj/asv.o
armv7_get_auxctrl                                 obj/libarmv7.o
armv7_get_cpuid                                   obj/libarmv7.o
armv7_get_mpidr                                   obj/libarmv7.o
armv7_get_scr                                     obj/libarmv7.o
armv7_pmu_init                                    obj/armv7_pmu.o
armv7_set_auxctrl                                 obj/libarmv7.o
armv7_set_scr                                     obj/libarmv7.o
asv_get_arm_vol                                   obj/asv.o
asv_get_core_vol                                  obj/asv.o
bl1_get_fnptr                                     obj/libplat.o
bl1_set_fnptr                                     obj/libplat.o
build_information                                 obj/build_info.o
clock_information                                 obj/clock.o
                                                  obj/main.o
clock_initialize                                  obj/clock.o
                                                  obj/main.o
clock_is_stable                                   obj/pll.o
cmu_clk_divstop                                   obj/cmu.o
cmu_clk_enable                                    obj/cmu.o
                                                  obj/serial.o
cmu_clkgrp_enable                                 obj/cmu.o
cmu_cpu                                           obj/cmu.o
cmu_ddr                                           obj/cmu.o
cmu_get_rate                                      obj/cmu.o
                                                  obj/serial.o
                                                  obj/clock.o
cmu_set_rate                                      obj/cmu.o
                                                  obj/serial.o
cmu_src                                           obj/cmu.o
cmu_sys                                           obj/cmu.o
cmu_usb                                           obj/cmu.o
core_v_tables                                     obj/asv.o
ctrl_set_init_values                              obj/dctrl.o
                                                  obj/ddr3_sdram.o
ddr3_initialize                                   obj/ddr3_sdram.o
                                                  obj/memory.o
efuse_get_bootcfg                                 obj/efuse.o
efuse_get_ecid                                    obj/efuse.o
                                                  obj/asv.o
empty_printf                                      obj/printf.o
enter_self_refresh                                obj/ddr3_sdram.o
                                                  obj/plat_load.o
exit_self_refresh                                 obj/ddr3_sdram.o
g_cycle_period_ps                                 obj/armv7_pmu.o
g_ddr_info                                        obj/memory.o
g_nsih                                            obj/main.o
                                                  obj/memory.o
                                                  obj/ddr3_sdram.o
                                                  obj/dphy.o
                                                  obj/dctrl.o
                                                  obj/clock.o
                                                  obj/pll.o
get_clk_priv                                      obj/cmu.o
get_optimal_div                                   obj/cmu.o
                                                  obj/clock.o
get_pll_freq                                      obj/pll.o
                                                  obj/asv.o
                                                  obj/dphy.o
                                                  obj/clock.o
                                                  obj/cmu.o
                                                  obj/armv7_pmu.o
get_pll_lock                                      obj/pll.o
get_pre_pll_freq                                  obj/pll.o
                                                  obj/clock.o
get_quotient                                      obj/libnx.o
                                                  obj/printf.o
get_remainder                                     obj/libnx.o
                                                  obj/printf.o
get_secure_status                                 obj/libarmv7.o
get_src_mux                                       obj/cmu.o
                                                  obj/clock.o
gpio_get_pad                                      obj/gpio.o
                                                  obj/i2c_gpio.o
gpio_set_alt_function                             obj/gpio.o
                                                  obj/i2c_gpio.o
gpio_set_outenb                                   obj/gpio.o
                                                  obj/i2c_gpio.o
gpio_set_output                                   obj/gpio.o
                                                  obj/i2c_gpio.o
gpio_set_pull                                     obj/gpio.o
                                                  obj/i2c_gpio.o
gpio_set_pullenb                                  obj/gpio.o
                                                  obj/i2c_gpio.o
host_cmd_load                                     obj/dctrl.o
                                                  obj/ddr3_sdram.o
host_cmd_load_mr                                  obj/dctrl.o
                                                  obj/ddr3_sdram.o
hw_bit_leveling                                   obj/dphy.o
                                                  obj/ddr3_sdram.o
hw_bit_leveling_information                       obj/dphy.o
hw_write_leveling                                 obj/dphy.o
                                                  obj/ddr3_sdram.o
i2c_gpio_deinit                                   obj/i2c_gpio.o
i2c_gpio_init                                     obj/i2c_gpio.o
                                                  obj/board_vtk.o
i2c_gpio_read                                     obj/i2c_gpio.o
                                                  obj/sm5011.o
i2c_gpio_write                                    obj/i2c_gpio.o
                                                  obj/sm5011.o
main                                              obj/main.o
                                                  obj/startup.o
mdelay                                            obj/delay.o
                                                  obj/sm5011.o
mem_init_seq_ddr3                                 obj/ddr3_sdram.o
memcmp                                            obj/libnx.o
memcpy                                            obj/libnx.o
memory_initialize                                 obj/memory.o
                                                  obj/main.o
memset                                            obj/libnx.o
mword16                                           obj/main.o
mword8                                            obj/main.o
nx_change_pll                                     obj/pll.o
nx_gpio_set_alt                                   obj/gpio.o
                                                  obj/serial.o
phy_set_init_values                               obj/dphy.o
                                                  obj/ddr3_sdram.o
plat_load                                         obj/plat_load.o
                                                  obj/main.o
pll_initialize                                    obj/pll.o
                                                  obj/clock.o
pll_set_oscmux                                    obj/pll.o
pmic_board_init                                   obj/board_vtk.o
                                                  obj/pmic.o
pmic_initialize                                   obj/pmic.o
                                                  obj/main.o
pmu_blk_pwrup                                     obj/pmu.o
pmu_counter_deinitialize                          obj/armv7_pmu.o
pmu_delay_us                                      obj/armv7_pmu.o
pmu_get_count                                     obj/armv7_pmu.o
pmu_initialize                                    obj/pmu.o
                                                  obj/main.o
printf                                            obj/printf.o
                                                  obj/build_info.o
                                                  obj/i2c_gpio.o
                                                  obj/memory.o
                                                  obj/dphy.o
                                                  obj/clock.o
rand                                              obj/main.o
rand_r                                            obj/main.o
rand_ul                                           obj/main.o
round_up                                          obj/libnx.o
                                                  obj/dphy.o
                                                  obj/dctrl.o
serial_getc                                       obj/serial.o
serial_init                                       obj/serial.o
                                                  obj/main.o
serial_is_busy                                    obj/serial.o
serial_is_rx_empty                                obj/serial.o
serial_is_tx_empty                                obj/serial.o
serial_is_uart_tx_done                            obj/serial.o
serial_putc                                       obj/serial.o
                                                  obj/printf.o
serial_set_baudrate                               obj/serial.o
set_mon_mode                                      obj/libarmv7.o
set_nonsecure_mode                                obj/libarmv7.o
set_secure_mode                                   obj/libarmv7.o
set_svc_mode                                      obj/libarmv7.o
sm5011_get_buck_vol                               obj/sm5011.o
sm5011_get_ldo_vol                                obj/sm5011.o
                                                  obj/board_vtk.o
sm5011_read                                       obj/sm5011.o
sm5011_sboot_output_cntl                          obj/sm5011.o
                                                  obj/board_vtk.o
sm5011_write                                      obj/sm5011.o
smc_call                                          obj/smc_entry.o
                                                  obj/plat_load.o
                                                  obj/tz.o
                                                  obj/pmu.o
srand                                             obj/main.o
tzpc_set_ddr                                      obj/tz.o
                                                  obj/main.o
udelay                                            obj/delay.o
                                                  obj/ddr3_sdram.o
vectors                                           obj/startup.o
